

Microchip Technology PIC18 LITE Macro Assembler V1.35 build -356382666 
                                                                                               Sat Feb 27 09:23:03 2016

Microchip Technology Omniscient Code Generator v1.35 (Free mode) build 201507080246
     1                           	processor	18F4480
     2                           	fnconf	rparam,??,?,0
     3                           	opt	pw 120
     4                           	opt	lm
     5                           	psect	idataCOMRAM,global,class=CODE,delta=1
     6                           	psect	cinit,global,reloc=2,class=CODE,delta=1
     7                           	psect	bitbssCOMRAM,global,bit,class=COMRAM,space=1,delta=1
     8                           	psect	bssCOMRAM,global,class=COMRAM,space=1,delta=1
     9                           	psect	dataCOMRAM,global,class=COMRAM,space=1,delta=1
    10                           	psect	cstackCOMRAM,global,class=COMRAM,space=1,delta=1
    11                           	psect	text0,global,reloc=2,class=CODE,delta=1
    12                           	psect	text1,global,reloc=2,class=CODE,delta=1
    13                           	psect	text2,global,reloc=2,class=CODE,delta=1
    14                           	psect	text3,global,reloc=2,class=CODE,delta=1
    15                           	psect	text4,global,reloc=2,class=CODE,delta=1
    16                           	psect	text5,global,reloc=2,class=CODE,delta=1
    17                           	psect	text6,global,reloc=2,class=CODE,delta=1
    18                           	psect	text7,global,reloc=2,class=CODE,delta=1
    19                           	psect	text8,global,reloc=2,class=CODE,delta=1
    20                           	psect	text9,global,reloc=2,class=CODE,delta=1
    21                           	psect	text10,global,reloc=2,class=CODE,delta=1
    22                           	psect	intsave_regs,global,class=BIGRAM,space=1,delta=1
    23                           	psect	rparam,global,class=COMRAM,space=1,delta=1
    24  0000                     
    25                           	psect	idataCOMRAM
    26  003763                     __pidataCOMRAM:
    27                           	opt stack 0
    28                           
    29                           ;initializer for _delay_quartz_frequency_value
    30  003763  10                 	db	16
    31  0000                     _ADCON0bits	set	4034
    32  0000                     _ADCON1	set	4033
    33  0000                     _ADCON2bits	set	4032
    34  0000                     _ADRESH	set	4036
    35  0000                     _LATA	set	3977
    36  0000                     _LATB	set	3978
    37  0000                     _LATC	set	3979
    38  0000                     _LATD	set	3980
    39  0000                     _LATE	set	3981
    40  0000                     _PIE1	set	3997
    41  0000                     _PIE1bits	set	3997
    42  0000                     _PIR1bits	set	3998
    43  0000                     _PORTAbits	set	3968
    44  0000                     _RCSTA	set	4011
    45  0000                     _RCSTAbits	set	4011
    46  0000                     _SPBRG	set	4015
    47  0000                     _SPBRGH	set	4016
    48  0000                     _TRISA	set	3986
    49  0000                     _TRISB	set	3987
    50  0000                     _TRISC	set	3988
    51  0000                     _TRISCbits	set	3988
    52  0000                     _TRISD	set	3989
    53  0000                     _TRISE	set	3990
    54  0000                     _TXREG	set	4013
    55  0000                     _TXSTA	set	4012
    56  0000                     _TXSTAbits	set	4012
    57                           
    58                           ; #config settings
    59  0000                     
    60                           	psect	cinit
    61  00379C                     __pcinit:
    62                           	opt stack 0
    63  00379C                     start_initialization:
    64                           	opt stack 0
    65  00379C                     __initialization:
    66                           	opt stack 0
    67                           
    68                           ; Clear objects allocated to BITCOMRAM (1 bytes)
    69  00379C  6A50               	clrf	(__pbitbssCOMRAM/(0+8))& (0+255),c
    70                           
    71                           ; Clear objects allocated to COMRAM (28 bytes)
    72  00379E  EE00  F034         	lfsr	0,__pbssCOMRAM
    73  0037A2  0E1C               	movlw	28
    74  0037A4                     clear_0:
    75  0037A4  6AEE               	clrf	postinc0,c
    76  0037A6  06E8               	decf	wreg,f,c
    77  0037A8  E1FD               	bnz	clear_0
    78                           
    79                           ; Initialize objects allocated to COMRAM (1 bytes)
    80                           ; load TBLPTR registers with __pidataCOMRAM
    81  0037AA  0E63               	movlw	low __pidataCOMRAM
    82  0037AC  6EF6               	movwf	tblptrl,c
    83  0037AE  0E37               	movlw	high __pidataCOMRAM
    84  0037B0  6EF7               	movwf	tblptrh,c
    85  0037B2  0E00               	movlw	low (__pidataCOMRAM shr (0+16))
    86  0037B4  6EF8               	movwf	tblptru,c
    87  0037B6  0009               	tblrd		*+	;fetch initializer
    88  0037B8  CFF5 F051          	movff	tablat,__pdataCOMRAM
    89  0037BC                     end_of_initialization:
    90                           	opt stack 0
    91  0037BC                     __end_of__initialization:
    92                           	opt stack 0
    93  0037BC  0100               	movlb	0
    94  0037BE  EF13  F01D         	goto	_main	;jump to C main() function
    95                           tblptru	equ	0xFF8
    96                           tblptrh	equ	0xFF7
    97                           tblptrl	equ	0xFF6
    98                           tablat	equ	0xFF5
    99                           postinc0	equ	0xFEE
   100                           wreg	equ	0xFE8
   101                           
   102                           	psect	bitbssCOMRAM
   103  000280                     __pbitbssCOMRAM:
   104                           	opt stack 0
   105  000280                     _dir:
   106                           	opt stack 0
   107  000280                     	ds	1
   108                           tblptru	equ	0xFF8
   109                           tblptrh	equ	0xFF7
   110                           tblptrl	equ	0xFF6
   111                           tablat	equ	0xFF5
   112                           postinc0	equ	0xFEE
   113                           wreg	equ	0xFE8
   114                           
   115                           	psect	bssCOMRAM
   116  000034                     __pbssCOMRAM:
   117                           	opt stack 0
   118  000034                     _USART_Tx:
   119                           	opt stack 0
   120  000034                     	ds	7
   121  00003B                     _clock_counter_reference:
   122                           	opt stack 0
   123  00003B                     	ds	2
   124  00003D                     _set_speed:
   125                           	opt stack 0
   126  00003D                     	ds	2
   127  00003F                     _USART_Status:
   128                           	opt stack 0
   129  00003F                     	ds	1
   130  000040                     _analogic_brake:
   131                           	opt stack 0
   132  000040                     	ds	1
   133  000041                     _i:
   134                           	opt stack 0
   135  000041                     	ds	1
   136  000042                     _set_speed_pk0:
   137                           	opt stack 0
   138  000042                     	ds	1
   139  000043                     _set_speed_pk1:
   140                           	opt stack 0
   141  000043                     	ds	1
   142  000044                     _set_steering:
   143                           	opt stack 0
   144  000044                     	ds	1
   145  000045                     _switch_position:
   146                           	opt stack 0
   147  000045                     	ds	1
   148  000046                     _JoystickConstants:
   149                           	opt stack 0
   150  000046                     	ds	8
   151  00004E                     _JoystickValues:
   152                           	opt stack 0
   153  00004E                     	ds	2
   154                           tblptru	equ	0xFF8
   155                           tblptrh	equ	0xFF7
   156                           tblptrl	equ	0xFF6
   157                           tablat	equ	0xFF5
   158                           postinc0	equ	0xFEE
   159                           wreg	equ	0xFE8
   160                           
   161                           	psect	dataCOMRAM
   162  000051                     __pdataCOMRAM:
   163                           	opt stack 0
   164  000051                     _delay_quartz_frequency_value:
   165                           	opt stack 0
   166  000051                     	ds	1
   167                           tblptru	equ	0xFF8
   168                           tblptrh	equ	0xFF7
   169                           tblptrl	equ	0xFF6
   170                           tablat	equ	0xFF5
   171                           postinc0	equ	0xFEE
   172                           wreg	equ	0xFE8
   173                           
   174                           	psect	cstackCOMRAM
   175  000001                     __pcstackCOMRAM:
   176                           	opt stack 0
   177  000001                     ??_Joystick_Polling:
   178  000001                     ?___wmul:
   179                           	opt stack 0
   180  000001                     ?___xxtofl:
   181                           	opt stack 0
   182  000001                     WriteUSART@data:
   183                           	opt stack 0
   184  000001                     OpenUSART@spbrg:
   185                           	opt stack 0
   186  000001                     ___wmul@multiplier:
   187                           	opt stack 0
   188  000001                     ___xxtofl@val:
   189                           	opt stack 0
   190                           
   191                           ; 4 bytes @ 0x0
   192  000001                     	ds	1
   193  000002                     
   194                           ; 0 bytes @ 0x1
   195  000002                     	ds	1
   196  000003                     OpenUSART@config:
   197                           	opt stack 0
   198  000003                     ___wmul@multiplicand:
   199                           	opt stack 0
   200                           
   201                           ; 2 bytes @ 0x2
   202  000003                     	ds	2
   203  000005                     ??___xxtofl:
   204  000005                     ___wmul@product:
   205                           	opt stack 0
   206                           
   207                           ; 2 bytes @ 0x4
   208  000005                     	ds	2
   209  000007                     delay_ms@value_ms:
   210                           	opt stack 0
   211                           
   212                           ; 2 bytes @ 0x6
   213  000007                     	ds	2
   214  000009                     ___xxtofl@sign:
   215                           	opt stack 0
   216                           
   217                           ; 1 bytes @ 0x8
   218  000009                     	ds	1
   219  00000A                     ___xxtofl@exp:
   220                           	opt stack 0
   221                           
   222                           ; 1 bytes @ 0x9
   223  00000A                     	ds	1
   224  00000B                     ___xxtofl@arg:
   225                           	opt stack 0
   226                           
   227                           ; 4 bytes @ 0xA
   228  00000B                     	ds	4
   229  00000F                     ?___flmul:
   230                           	opt stack 0
   231  00000F                     ___flmul@b:
   232                           	opt stack 0
   233                           
   234                           ; 4 bytes @ 0xE
   235  00000F                     	ds	4
   236  000013                     ___flmul@a:
   237                           	opt stack 0
   238                           
   239                           ; 4 bytes @ 0x12
   240  000013                     	ds	4
   241  000017                     ??___flmul:
   242                           
   243                           ; 0 bytes @ 0x16
   244  000017                     	ds	4
   245  00001B                     ___flmul@sign:
   246                           	opt stack 0
   247                           
   248                           ; 1 bytes @ 0x1A
   249  00001B                     	ds	1
   250  00001C                     ___flmul@grs:
   251                           	opt stack 0
   252                           
   253                           ; 4 bytes @ 0x1B
   254  00001C                     	ds	4
   255  000020                     ___flmul@aexp:
   256                           	opt stack 0
   257                           
   258                           ; 1 bytes @ 0x1F
   259  000020                     	ds	1
   260  000021                     ___flmul@bexp:
   261                           	opt stack 0
   262                           
   263                           ; 1 bytes @ 0x20
   264  000021                     	ds	1
   265  000022                     ___flmul@prod:
   266                           	opt stack 0
   267                           
   268                           ; 4 bytes @ 0x21
   269  000022                     	ds	4
   270  000026                     ___flmul@temp:
   271                           	opt stack 0
   272                           
   273                           ; 2 bytes @ 0x25
   274  000026                     	ds	2
   275  000028                     ?___fltol:
   276                           	opt stack 0
   277  000028                     ___fltol@f1:
   278                           	opt stack 0
   279                           
   280                           ; 4 bytes @ 0x27
   281  000028                     	ds	4
   282  00002C                     ??___fltol:
   283                           
   284                           ; 0 bytes @ 0x2B
   285  00002C                     	ds	4
   286  000030                     ___fltol@sign1:
   287                           	opt stack 0
   288                           
   289                           ; 1 bytes @ 0x2F
   290  000030                     	ds	1
   291  000031                     ___fltol@exp1:
   292                           	opt stack 0
   293                           
   294                           ; 1 bytes @ 0x30
   295  000031                     	ds	1
   296  000032                     ??_main:
   297                           
   298                           ; 0 bytes @ 0x31
   299  000032                     	ds	2
   300                           tblptru	equ	0xFF8
   301                           tblptrh	equ	0xFF7
   302                           tblptrl	equ	0xFF6
   303                           tablat	equ	0xFF5
   304                           postinc0	equ	0xFEE
   305                           wreg	equ	0xFE8
   306                           
   307 ;;
   308 ;;Main: autosize = 0, tempsize = 2, incstack = 0, save=0
   309 ;;
   310 ;; *************** function _main *****************
   311 ;; Defined at:
   312 ;;		line 69 in file "telecomando.c"
   313 ;; Parameters:    Size  Location     Type
   314 ;;		None
   315 ;; Auto vars:     Size  Location     Type
   316 ;;		None
   317 ;; Return value:  Size  Location     Type
   318 ;;		None               void
   319 ;; Registers used:
   320 ;;		wreg, fsr2l, fsr2h, status,2, status,0, prodl, prodh, cstack
   321 ;; Tracked objects:
   322 ;;		On entry : 0/0
   323 ;;		On exit  : 0/0
   324 ;;		Unchanged: 0/0
   325 ;; Data sizes:     COMRAM   BANK0   BANK1   BANK2
   326 ;;      Params:         0       0       0       0
   327 ;;      Locals:         0       0       0       0
   328 ;;      Temps:          2       0       0       0
   329 ;;      Totals:         2       0       0       0
   330 ;;Total ram usage:        2 bytes
   331 ;; Hardware stack levels required when called:    3
   332 ;; This function calls:
   333 ;;		_Joystick_Polling
   334 ;;		_USART_Send
   335 ;;		___flmul
   336 ;;		___fltol
   337 ;;		___xxtofl
   338 ;;		_board_initialization
   339 ;;		_delay_ms
   340 ;; This function is called by:
   341 ;;		Startup code after reset
   342 ;; This function uses a non-reentrant model
   343 ;;
   344                           
   345                           	psect	text0
   346  003A26                     __ptext0:
   347                           	opt stack 0
   348  003A26                     _main:
   349                           	opt stack 28
   350                           
   351                           ;telecomando.c: 70: board_initialization();
   352                           
   353                           ;incstack = 0
   354  003A26  EC73  F01C         	call	_board_initialization	;wreg free
   355                           
   356                           ;telecomando.c: 73: USART_Tx[0] = 0xAA;
   357  003A2A  0EAA               	movlw	170
   358  003A2C  6E34               	movwf	_USART_Tx,c
   359                           
   360                           ;telecomando.c: 74: USART_Tx[6] = 0xAA;
   361  003A2E  0EAA               	movlw	170
   362  003A30  6E3A               	movwf	_USART_Tx+6,c
   363                           
   364                           ;telecomando.c: 75: JoystickConstants[0] = 0.703;
   365  003A32  0ECF               	movlw	207
   366  003A34  6E46               	movwf	_JoystickConstants,c	;volatile
   367  003A36  0EF7               	movlw	247
   368  003A38  6E47               	movwf	_JoystickConstants+1,c	;volatile
   369  003A3A  0E33               	movlw	51
   370  003A3C  6E48               	movwf	_JoystickConstants+2,c	;volatile
   371  003A3E  0E3F               	movlw	63
   372  003A40  6E49               	movwf	_JoystickConstants+3,c	;volatile
   373                           
   374                           ;telecomando.c: 76: JoystickConstants[1] = 34;
   375  003A42  0E00               	movlw	0
   376  003A44  6E4A               	movwf	_JoystickConstants+4,c	;volatile
   377  003A46  0E00               	movlw	0
   378  003A48  6E4B               	movwf	_JoystickConstants+5,c	;volatile
   379  003A4A  0E08               	movlw	8
   380  003A4C  6E4C               	movwf	_JoystickConstants+6,c	;volatile
   381  003A4E  0E42               	movlw	66
   382  003A50  6E4D               	movwf	_JoystickConstants+7,c	;volatile
   383  003A52                     l1538:
   384                           
   385                           ;telecomando.c: 81: Joystick_Polling();
   386  003A52  ECFA  F01B         	call	_Joystick_Polling	;wreg free
   387                           
   388                           ;telecomando.c: 84: if (PORTAbits.RA2 == 1) {
   389  003A56  A480               	btfss	3968,2,c	;volatile
   390  003A58  D003               	goto	l95
   391                           
   392                           ;telecomando.c: 85: switch_position = 0;
   393  003A5A  0E00               	movlw	0
   394  003A5C  6E45               	movwf	_switch_position,c	;volatile
   395                           
   396                           ;telecomando.c: 86: } else {
   397  003A5E  D009               	goto	l1552
   398  003A60                     l95:
   399                           
   400                           ;telecomando.c: 87: if (PORTAbits.RA3 == 0) {
   401  003A60  B680               	btfsc	3968,3,c	;volatile
   402  003A62  D004               	goto	l1548
   403                           
   404                           ;telecomando.c: 88: switch_position = 1;
   405  003A64  0E01               	movlw	1
   406  003A66  6E45               	movwf	_switch_position,c	;volatile
   407                           
   408                           ;telecomando.c: 89: dir = 1;
   409  003A68  8050               	bsf	_dir/(0+8),_dir& (0+7),c	;volatile
   410                           
   411                           ;telecomando.c: 90: } else {
   412  003A6A  D003               	goto	l1552
   413  003A6C                     l1548:
   414                           
   415                           ;telecomando.c: 91: switch_position = 2;
   416  003A6C  0E02               	movlw	2
   417  003A6E  6E45               	movwf	_switch_position,c	;volatile
   418                           
   419                           ;telecomando.c: 92: dir = 0;
   420  003A70  9050               	bcf	_dir/(0+8),_dir& (0+7),c	;volatile
   421  003A72                     l1552:
   422                           
   423                           ;telecomando.c: 93: }
   424                           ;telecomando.c: 94: }
   425                           ;telecomando.c: 96: set_steering = (128 + JoystickValues[0])*(JoystickConstants[0]);
   426  003A72  C046  F013         	movff	_JoystickConstants,___flmul@a	;volatile
   427  003A76  C047  F014         	movff	_JoystickConstants+1,___flmul@a+1	;volatile
   428  003A7A  C048  F015         	movff	_JoystickConstants+2,___flmul@a+2	;volatile
   429  003A7E  C049  F016         	movff	_JoystickConstants+3,___flmul@a+3	;volatile
   430  003A82  C04E  F032         	movff	_JoystickValues,??_main	;volatile
   431  003A86  6A33               	clrf	(??_main+1)& (0+255),c
   432  003A88  BE32               	btfsc	??_main& (0+255),7,c
   433  003A8A  0633               	decf	(??_main+1)& (0+255),f,c
   434  003A8C  0E80               	movlw	128
   435  003A8E  2632               	addwf	??_main,f,c
   436  003A90  0E00               	movlw	0
   437  003A92  2233               	addwfc	??_main+1,f,c
   438  003A94  C032  F001         	movff	??_main,___xxtofl@val
   439  003A98  C033  F002         	movff	??_main+1,___xxtofl@val+1
   440  003A9C  0E00               	movlw	0
   441  003A9E  BE02               	btfsc	___xxtofl@val+1,7,c
   442  003AA0  0EFF               	movlw	-1
   443  003AA2  6E03               	movwf	___xxtofl@val+2,c
   444  003AA4  6E04               	movwf	___xxtofl@val+3,c
   445  003AA6  0E01               	movlw	1
   446  003AA8  ECB0  F01D         	call	___xxtofl
   447  003AAC  C001  F00F         	movff	?___xxtofl,___flmul@b
   448  003AB0  C002  F010         	movff	?___xxtofl+1,___flmul@b+1
   449  003AB4  C003  F011         	movff	?___xxtofl+2,___flmul@b+2
   450  003AB8  C004  F012         	movff	?___xxtofl+3,___flmul@b+3
   451  003ABC  EC58  F01E         	call	___flmul	;wreg free
   452  003AC0  C00F  F028         	movff	?___flmul,___fltol@f1
   453  003AC4  C010  F029         	movff	?___flmul+1,___fltol@f1+1
   454  003AC8  C011  F02A         	movff	?___flmul+2,___fltol@f1+2
   455  003ACC  C012  F02B         	movff	?___flmul+3,___fltol@f1+3
   456  003AD0  ECA5  F01C         	call	___fltol	;wreg free
   457  003AD4  5028               	movf	?___fltol,w,c
   458  003AD6  6E44               	movwf	_set_steering,c	;volatile
   459                           
   460                           ;telecomando.c: 97: if (JoystickValues[1] > 0) {
   461  003AD8  504F               	movf	_JoystickValues+1,w,c	;volatile
   462  003ADA  0A80               	xorlw	128
   463  003ADC  0F7F               	addlw	-129
   464  003ADE  A0D8               	btfss	status,0,c
   465  003AE0  D02D               	goto	l1560
   466                           
   467                           ;telecomando.c: 98: set_speed = (JoystickValues[1])*(JoystickConstants[1]);
   468  003AE2  C04A  F013         	movff	_JoystickConstants+4,___flmul@a	;volatile
   469  003AE6  C04B  F014         	movff	_JoystickConstants+5,___flmul@a+1	;volatile
   470  003AEA  C04C  F015         	movff	_JoystickConstants+6,___flmul@a+2	;volatile
   471  003AEE  C04D  F016         	movff	_JoystickConstants+7,___flmul@a+3	;volatile
   472  003AF2  504F               	movf	_JoystickValues+1,w,c	;volatile
   473  003AF4  6E01               	movwf	___xxtofl@val,c
   474  003AF6  0E00               	movlw	0
   475  003AF8  BE01               	btfsc	___xxtofl@val,7,c
   476  003AFA  0EFF               	movlw	-1
   477  003AFC  6E02               	movwf	___xxtofl@val+1,c
   478  003AFE  6E03               	movwf	___xxtofl@val+2,c
   479  003B00  6E04               	movwf	___xxtofl@val+3,c
   480  003B02  0E01               	movlw	1
   481  003B04  ECB0  F01D         	call	___xxtofl
   482  003B08  C001  F00F         	movff	?___xxtofl,___flmul@b
   483  003B0C  C002  F010         	movff	?___xxtofl+1,___flmul@b+1
   484  003B10  C003  F011         	movff	?___xxtofl+2,___flmul@b+2
   485  003B14  C004  F012         	movff	?___xxtofl+3,___flmul@b+3
   486  003B18  EC58  F01E         	call	___flmul	;wreg free
   487  003B1C  C00F  F028         	movff	?___flmul,___fltol@f1
   488  003B20  C010  F029         	movff	?___flmul+1,___fltol@f1+1
   489  003B24  C011  F02A         	movff	?___flmul+2,___fltol@f1+2
   490  003B28  C012  F02B         	movff	?___flmul+3,___fltol@f1+3
   491  003B2C  ECA5  F01C         	call	___fltol	;wreg free
   492  003B30  C028  F03D         	movff	?___fltol,_set_speed	;volatile
   493  003B34  C029  F03E         	movff	?___fltol+1,_set_speed+1	;volatile
   494                           
   495                           ;telecomando.c: 99: analogic_brake = 0;
   496  003B38  0E00               	movlw	0
   497  003B3A  D008               	goto	L1
   498  003B3C                     l1560:
   499                           
   500                           ;telecomando.c: 101: set_speed = 0;
   501  003B3C  0E00               	movlw	0
   502  003B3E  6E3E               	movwf	_set_speed+1,c	;volatile
   503  003B40  0E00               	movlw	0
   504  003B42  6E3D               	movwf	_set_speed,c	;volatile
   505                           
   506                           ;telecomando.c: 102: analogic_brake = -((2 * JoystickValues[1]) + 1);
   507  003B44  504F               	movf	_JoystickValues+1,w,c	;volatile
   508  003B46  0D02               	mullw	2
   509  003B48  28F3               	incf	prodl,w,c
   510  003B4A  0800               	sublw	0
   511  003B4C                     L1:
   512  003B4C  6E40               	movwf	_analogic_brake,c	;volatile
   513                           
   514                           ;telecomando.c: 103: }
   515                           ;telecomando.c: 104: USART_Send();
   516  003B4E  EC1E  F01C         	call	_USART_Send	;wreg free
   517                           
   518                           ;telecomando.c: 105: delay_ms(10);
   519  003B52  0E00               	movlw	0
   520  003B54  6E08               	movwf	delay_ms@value_ms+1,c
   521  003B56  0E0A               	movlw	10
   522  003B58  6E07               	movwf	delay_ms@value_ms,c
   523  003B5A  ECE1  F01B         	call	_delay_ms	;wreg free
   524  003B5E  D779               	goto	l1538
   525  003B60                     __end_of_main:
   526                           	opt stack 0
   527                           tblptru	equ	0xFF8
   528                           tblptrh	equ	0xFF7
   529                           tblptrl	equ	0xFF6
   530                           tablat	equ	0xFF5
   531                           prodl	equ	0xFF3
   532                           postinc0	equ	0xFEE
   533                           wreg	equ	0xFE8
   534                           status	equ	0xFD8
   535                           
   536 ;; *************** function _board_initialization *****************
   537 ;; Defined at:
   538 ;;		line 137 in file "telecomando.c"
   539 ;; Parameters:    Size  Location     Type
   540 ;;		None
   541 ;; Auto vars:     Size  Location     Type
   542 ;;		None
   543 ;; Return value:  Size  Location     Type
   544 ;;		None               void
   545 ;; Registers used:
   546 ;;		wreg, status,2, status,0, prodl, prodh, cstack
   547 ;; Tracked objects:
   548 ;;		On entry : 0/0
   549 ;;		On exit  : 0/0
   550 ;;		Unchanged: 0/0
   551 ;; Data sizes:     COMRAM   BANK0   BANK1   BANK2
   552 ;;      Params:         0       0       0       0
   553 ;;      Locals:         0       0       0       0
   554 ;;      Temps:          0       0       0       0
   555 ;;      Totals:         0       0       0       0
   556 ;;Total ram usage:        0 bytes
   557 ;; Hardware stack levels used:    1
   558 ;; Hardware stack levels required when called:    2
   559 ;; This function calls:
   560 ;;		_OpenUSART
   561 ;;		_delay_ms
   562 ;; This function is called by:
   563 ;;		_main
   564 ;; This function uses a non-reentrant model
   565 ;;
   566                           
   567                           	psect	text1
   568  0038E6                     __ptext1:
   569                           	opt stack 0
   570  0038E6                     _board_initialization:
   571                           	opt stack 28
   572                           
   573                           ;telecomando.c: 139: LATA = 0x00;
   574                           
   575                           ;incstack = 0
   576  0038E6  0E00               	movlw	0
   577  0038E8  6E89               	movwf	3977,c	;volatile
   578                           
   579                           ;telecomando.c: 140: TRISA = 0b00001111;
   580  0038EA  0E0F               	movlw	15
   581  0038EC  6E92               	movwf	3986,c	;volatile
   582                           
   583                           ;telecomando.c: 141: LATB = 0x00;
   584  0038EE  0E00               	movlw	0
   585  0038F0  6E8A               	movwf	3978,c	;volatile
   586                           
   587                           ;telecomando.c: 142: TRISB = 0xFF;
   588  0038F2  6893               	setf	3987,c	;volatile
   589                           
   590                           ;telecomando.c: 143: LATC = 0x00;
   591  0038F4  0E00               	movlw	0
   592  0038F6  6E8B               	movwf	3979,c	;volatile
   593                           
   594                           ;telecomando.c: 144: TRISC = 0xFF;
   595  0038F8  6894               	setf	3988,c	;volatile
   596                           
   597                           ;telecomando.c: 145: LATD = 0x00;
   598  0038FA  0E00               	movlw	0
   599  0038FC  6E8C               	movwf	3980,c	;volatile
   600                           
   601                           ;telecomando.c: 146: TRISD = 0x11000000;
   602  0038FE  0E00               	movlw	0
   603  003900  6E95               	movwf	3989,c	;volatile
   604                           
   605                           ;telecomando.c: 147: LATE = 0x00;
   606  003902  0E00               	movlw	0
   607  003904  6E8D               	movwf	3981,c	;volatile
   608                           
   609                           ;telecomando.c: 148: TRISE = 0xFF;
   610  003906  6896               	setf	3990,c	;volatile
   611                           
   612                           ;telecomando.c: 150: RCSTA&=0b01001111,TXSTAbits.TXEN=0,PIE1&=0b11001111;
   613  003908  0E4F               	movlw	79
   614  00390A  16AB               	andwf	4011,f,c	;volatile
   615  00390C  9AAC               	bcf	4012,5,c	;volatile
   616  00390E  0ECF               	movlw	207
   617  003910  169D               	andwf	3997,f,c	;volatile
   618                           
   619                           ;telecomando.c: 160: OpenUSART(0b01111111 & 0b11111111 & 0b11111110 & 0b11111101
   620                           ;telecomando.c: 161: & 0b11111111 & 0b11111111, 103);
   621  003912  0E00               	movlw	0
   622  003914  6E02               	movwf	OpenUSART@spbrg+1,c
   623  003916  0E67               	movlw	103
   624  003918  6E01               	movwf	OpenUSART@spbrg,c
   625  00391A  0E7C               	movlw	124
   626  00391C  EC43  F01C         	call	_OpenUSART
   627                           
   628                           ;telecomando.c: 162: RCSTAbits.SPEN = 1;
   629  003920  8EAB               	bsf	4011,7,c	;volatile
   630                           
   631                           ;telecomando.c: 165: ADCON1 = 0b00001101;
   632  003922  0E0D               	movlw	13
   633  003924  6EC1               	movwf	4033,c	;volatile
   634                           
   635                           ;telecomando.c: 166: ADCON0bits.CHS2 = 0;
   636  003926  98C2               	bcf	4034,4,c	;volatile
   637                           
   638                           ;telecomando.c: 167: ADCON0bits.CHS1 = 0;
   639  003928  96C2               	bcf	4034,3,c	;volatile
   640                           
   641                           ;telecomando.c: 168: ADCON0bits.CHS0 = 0;
   642  00392A  94C2               	bcf	4034,2,c	;volatile
   643                           
   644                           ;telecomando.c: 169: ADCON2bits.ACQT2 = 1;
   645  00392C  8AC0               	bsf	4032,5,c	;volatile
   646                           
   647                           ;telecomando.c: 170: ADCON2bits.ACQT1 = 1;
   648  00392E  88C0               	bsf	4032,4,c	;volatile
   649                           
   650                           ;telecomando.c: 171: ADCON2bits.ACQT0 = 0;
   651  003930  96C0               	bcf	4032,3,c	;volatile
   652                           
   653                           ;telecomando.c: 172: ADCON2bits.ADCS2 = 1;
   654  003932  84C0               	bsf	4032,2,c	;volatile
   655                           
   656                           ;telecomando.c: 173: ADCON2bits.ADCS1 = 0;
   657  003934  92C0               	bcf	4032,1,c	;volatile
   658                           
   659                           ;telecomando.c: 174: ADCON2bits.ADCS0 = 1;
   660  003936  80C0               	bsf	4032,0,c	;volatile
   661                           
   662                           ;telecomando.c: 175: ADCON2bits.ADFM = 0;
   663  003938  9EC0               	bcf	4032,7,c	;volatile
   664                           
   665                           ;telecomando.c: 176: ADCON0bits.ADON = 1;
   666  00393A  80C2               	bsf	4034,0,c	;volatile
   667                           
   668                           ;telecomando.c: 183: delay_ms(2);
   669  00393C  0E00               	movlw	0
   670  00393E  6E08               	movwf	delay_ms@value_ms+1,c
   671  003940  0E02               	movlw	2
   672  003942  6E07               	movwf	delay_ms@value_ms,c
   673  003944  ECE1  F01B         	call	_delay_ms	;wreg free
   674  003948  0012               	return		;funcret
   675  00394A                     __end_of_board_initialization:
   676                           	opt stack 0
   677                           tblptru	equ	0xFF8
   678                           tblptrh	equ	0xFF7
   679                           tblptrl	equ	0xFF6
   680                           tablat	equ	0xFF5
   681                           prodl	equ	0xFF3
   682                           postinc0	equ	0xFEE
   683                           wreg	equ	0xFE8
   684                           status	equ	0xFD8
   685                           
   686 ;; *************** function _delay_ms *****************
   687 ;; Defined at:
   688 ;;		line 61 in file "../LaurTec_PIC_libraries_v_3.3.0/src\delay.c"
   689 ;; Parameters:    Size  Location     Type
   690 ;;  value_ms        2    6[COMRAM] unsigned int 
   691 ;; Auto vars:     Size  Location     Type
   692 ;;		None
   693 ;; Return value:  Size  Location     Type
   694 ;;		None               void
   695 ;; Registers used:
   696 ;;		wreg, status,2, status,0, prodl, prodh, cstack
   697 ;; Tracked objects:
   698 ;;		On entry : 0/0
   699 ;;		On exit  : 0/0
   700 ;;		Unchanged: 0/0
   701 ;; Data sizes:     COMRAM   BANK0   BANK1   BANK2
   702 ;;      Params:         2       0       0       0
   703 ;;      Locals:         0       0       0       0
   704 ;;      Temps:          0       0       0       0
   705 ;;      Totals:         2       0       0       0
   706 ;;Total ram usage:        2 bytes
   707 ;; Hardware stack levels used:    1
   708 ;; Hardware stack levels required when called:    1
   709 ;; This function calls:
   710 ;;		___wmul
   711 ;; This function is called by:
   712 ;;		_main
   713 ;;		_board_initialization
   714 ;;		_delay_s
   715 ;; This function uses a non-reentrant model
   716 ;;
   717                           
   718                           	psect	text2
   719  0037C2                     __ptext2:
   720                           	opt stack 0
   721  0037C2                     _delay_ms:
   722                           	opt stack 29
   723                           
   724                           ;src\delay.c: 73: clock_counter_reference = value_ms * delay_quartz_frequency_value;
   725                           
   726                           ;incstack = 0
   727  0037C2  C051  F001         	movff	_delay_quartz_frequency_value,___wmul@multiplier	;volatile
   728  0037C6  6A02               	clrf	___wmul@multiplier+1,c
   729  0037C8  C007  F003         	movff	delay_ms@value_ms,___wmul@multiplicand
   730  0037CC  C008  F004         	movff	delay_ms@value_ms+1,___wmul@multiplicand+1
   731  0037D0  ECBB  F01B         	call	___wmul	;wreg free
   732  0037D4  C001  F03B         	movff	?___wmul,_clock_counter_reference	;volatile
   733  0037D8  C002  F03C         	movff	?___wmul+1,_clock_counter_reference+1	;volatile
   734                           
   735                           ;src\delay.c: 75: while (clock_counter_reference) {
   736  0037DC  D006               	goto	l57
   737  0037DE                     l1206:
   738                           
   739                           ;src\delay.c: 85: _delay(240);
   740  0037DE  0E50               	movlw	80
   741  0037E0                     u1127:
   742  0037E0  2EE8               	decfsz	wreg,f,c
   743  0037E2  D7FE               	goto	u1127
   744                           
   745                           ;src\delay.c: 88: clock_counter_reference--;
   746  0037E4  063B               	decf	_clock_counter_reference,f,c	;volatile
   747  0037E6  A0D8               	btfss	status,0,c
   748  0037E8  063C               	decf	_clock_counter_reference+1,f,c	;volatile
   749  0037EA                     l57:
   750  0037EA  503B               	movf	_clock_counter_reference,w,c	;volatile
   751  0037EC  103C               	iorwf	_clock_counter_reference+1,w,c	;volatile
   752  0037EE  B4D8               	btfsc	status,2,c
   753  0037F0  0012               	return	
   754  0037F2  D7F5               	goto	l1206
   755  0037F4                     __end_of_delay_ms:
   756                           	opt stack 0
   757                           tblptru	equ	0xFF8
   758                           tblptrh	equ	0xFF7
   759                           tblptrl	equ	0xFF6
   760                           tablat	equ	0xFF5
   761                           prodl	equ	0xFF3
   762                           postinc0	equ	0xFEE
   763                           wreg	equ	0xFE8
   764                           status	equ	0xFD8
   765                           
   766 ;; *************** function ___wmul *****************
   767 ;; Defined at:
   768 ;;		line 15 in file "C:\Program Files (x86)\Microchip\xc8\v1.35\sources\common\Umul16.c"
   769 ;; Parameters:    Size  Location     Type
   770 ;;  multiplier      2    0[COMRAM] unsigned int 
   771 ;;  multiplicand    2    2[COMRAM] unsigned int 
   772 ;; Auto vars:     Size  Location     Type
   773 ;;  product         2    4[COMRAM] unsigned int 
   774 ;; Return value:  Size  Location     Type
   775 ;;                  2    0[COMRAM] unsigned int 
   776 ;; Registers used:
   777 ;;		wreg, status,2, status,0, prodl, prodh
   778 ;; Tracked objects:
   779 ;;		On entry : 0/0
   780 ;;		On exit  : 0/0
   781 ;;		Unchanged: 0/0
   782 ;; Data sizes:     COMRAM   BANK0   BANK1   BANK2
   783 ;;      Params:         4       0       0       0
   784 ;;      Locals:         2       0       0       0
   785 ;;      Temps:          0       0       0       0
   786 ;;      Totals:         6       0       0       0
   787 ;;Total ram usage:        6 bytes
   788 ;; Hardware stack levels used:    1
   789 ;; This function calls:
   790 ;;		Nothing
   791 ;; This function is called by:
   792 ;;		_delay_ms
   793 ;; This function uses a non-reentrant model
   794 ;;
   795                           
   796                           	psect	text3
   797  003776                     __ptext3:
   798                           	opt stack 0
   799  003776                     ___wmul:
   800                           	opt stack 29
   801                           
   802                           ;incstack = 0
   803  003776  5001               	movf	___wmul@multiplier,w,c
   804  003778  0203               	mulwf	___wmul@multiplicand,c
   805  00377A  CFF3 F005          	movff	prodl,___wmul@product
   806  00377E  CFF4 F006          	movff	prodh,___wmul@product+1
   807  003782  5001               	movf	___wmul@multiplier,w,c
   808  003784  0204               	mulwf	___wmul@multiplicand+1,c
   809  003786  50F3               	movf	prodl,w,c
   810  003788  2606               	addwf	___wmul@product+1,f,c
   811  00378A  5002               	movf	___wmul@multiplier+1,w,c
   812  00378C  0203               	mulwf	___wmul@multiplicand,c
   813  00378E  50F3               	movf	prodl,w,c
   814  003790  2606               	addwf	___wmul@product+1,f,c
   815  003792  C005  F001         	movff	___wmul@product,?___wmul
   816  003796  C006  F002         	movff	___wmul@product+1,?___wmul+1
   817  00379A  0012               	return	
   818  00379C                     __end_of___wmul:
   819                           	opt stack 0
   820                           tblptru	equ	0xFF8
   821                           tblptrh	equ	0xFF7
   822                           tblptrl	equ	0xFF6
   823                           tablat	equ	0xFF5
   824                           prodh	equ	0xFF4
   825                           prodl	equ	0xFF3
   826                           postinc0	equ	0xFEE
   827                           wreg	equ	0xFE8
   828                           status	equ	0xFD8
   829                           
   830 ;; *************** function _OpenUSART *****************
   831 ;; Defined at:
   832 ;;		line 73 in file "C:\Program Files (x86)\Microchip\xc8\v1.35\sources\pic18\plib\USART\uopen.c"
   833 ;; Parameters:    Size  Location     Type
   834 ;;  config          1    wreg     unsigned char 
   835 ;;  spbrg           2    0[COMRAM] unsigned int 
   836 ;; Auto vars:     Size  Location     Type
   837 ;;  config          1    2[COMRAM] unsigned char 
   838 ;; Return value:  Size  Location     Type
   839 ;;		None               void
   840 ;; Registers used:
   841 ;;		wreg, status,2
   842 ;; Tracked objects:
   843 ;;		On entry : 0/0
   844 ;;		On exit  : 0/0
   845 ;;		Unchanged: 0/0
   846 ;; Data sizes:     COMRAM   BANK0   BANK1   BANK2
   847 ;;      Params:         2       0       0       0
   848 ;;      Locals:         1       0       0       0
   849 ;;      Temps:          0       0       0       0
   850 ;;      Totals:         3       0       0       0
   851 ;;Total ram usage:        3 bytes
   852 ;; Hardware stack levels used:    1
   853 ;; This function calls:
   854 ;;		Nothing
   855 ;; This function is called by:
   856 ;;		_board_initialization
   857 ;; This function uses a non-reentrant model
   858 ;;
   859                           
   860                           	psect	text4
   861  003886                     __ptext4:
   862                           	opt stack 0
   863  003886                     _OpenUSART:
   864                           	opt stack 29
   865                           
   866                           ;incstack = 0
   867                           ;OpenUSART@config stored from wreg
   868  003886  6E03               	movwf	OpenUSART@config,c
   869  003888  0E00               	movlw	0
   870  00388A  6EAC               	movwf	4012,c	;volatile
   871  00388C  0E00               	movlw	0
   872  00388E  6EAB               	movwf	4011,c	;volatile
   873  003890  B003               	btfsc	OpenUSART@config,0,c
   874  003892  88AC               	bsf	4012,4,c	;volatile
   875  003894  A203               	btfss	OpenUSART@config,1,c
   876  003896  D002               	goto	l1220
   877  003898  8CAC               	bsf	4012,6,c	;volatile
   878  00389A  8CAB               	bsf	4011,6,c	;volatile
   879  00389C                     l1220:
   880  00389C  B403               	btfsc	OpenUSART@config,2,c
   881  00389E  8EAC               	bsf	4012,7,c	;volatile
   882  0038A0  A603               	btfss	OpenUSART@config,3,c
   883  0038A2  D002               	goto	l146
   884  0038A4  88AB               	bsf	4011,4,c	;volatile
   885  0038A6  D001               	goto	l1228
   886  0038A8                     l146:
   887  0038A8  8AAB               	bsf	4011,5,c	;volatile
   888  0038AA                     l1228:
   889  0038AA  B803               	btfsc	OpenUSART@config,4,c
   890  0038AC  84AC               	bsf	4012,2,c	;volatile
   891  0038AE  989E               	bcf	3998,4,c	;volatile
   892  0038B0  BA03               	btfsc	OpenUSART@config,5,c
   893  0038B2  86AB               	bsf	4011,3,c	;volatile
   894  0038B4  AC03               	btfss	OpenUSART@config,6,c
   895  0038B6  D002               	goto	l150
   896  0038B8  8A9D               	bsf	3997,5,c	;volatile
   897  0038BA  D001               	goto	l151
   898  0038BC                     l150:
   899  0038BC  9A9D               	bcf	3997,5,c	;volatile
   900  0038BE                     l151:
   901  0038BE  9A9E               	bcf	3998,5,c	;volatile
   902  0038C0  AE03               	btfss	OpenUSART@config,7,c
   903  0038C2  D002               	goto	l152
   904  0038C4  889D               	bsf	3997,4,c	;volatile
   905  0038C6  D001               	goto	l153
   906  0038C8                     l152:
   907  0038C8  989D               	bcf	3997,4,c	;volatile
   908  0038CA                     l153:
   909  0038CA  C001  FFAF         	movff	OpenUSART@spbrg,4015	;volatile
   910  0038CE  5002               	movf	OpenUSART@spbrg+1,w,c
   911  0038D0  6EB0               	movwf	4016,c	;volatile
   912  0038D2  8AAC               	bsf	4012,5,c	;volatile
   913  0038D4  8EAB               	bsf	4011,7,c	;volatile
   914  0038D6  9C94               	bcf	3988,6,c	;volatile
   915  0038D8  8E94               	bsf	3988,7,c	;volatile
   916  0038DA  A8AC               	btfss	4012,4,c	;volatile
   917  0038DC  0012               	return	
   918  0038DE  BEAC               	btfsc	4012,7,c	;volatile
   919  0038E0  0012               	return	
   920  0038E2  8C94               	bsf	3988,6,c	;volatile
   921  0038E4  0012               	return	
   922  0038E6                     __end_of_OpenUSART:
   923                           	opt stack 0
   924                           tblptru	equ	0xFF8
   925                           tblptrh	equ	0xFF7
   926                           tblptrl	equ	0xFF6
   927                           tablat	equ	0xFF5
   928                           prodh	equ	0xFF4
   929                           prodl	equ	0xFF3
   930                           postinc0	equ	0xFEE
   931                           wreg	equ	0xFE8
   932                           status	equ	0xFD8
   933                           
   934 ;; *************** function ___xxtofl *****************
   935 ;; Defined at:
   936 ;;		line 10 in file "C:\Program Files (x86)\Microchip\xc8\v1.35\sources\common\xxtofl.c"
   937 ;; Parameters:    Size  Location     Type
   938 ;;  sign            1    wreg     unsigned char 
   939 ;;  val             4    0[COMRAM] long 
   940 ;; Auto vars:     Size  Location     Type
   941 ;;  sign            1    8[COMRAM] unsigned char 
   942 ;;  arg             4   10[COMRAM] unsigned long 
   943 ;;  exp             1    9[COMRAM] unsigned char 
   944 ;; Return value:  Size  Location     Type
   945 ;;                  4    0[COMRAM] unsigned char 
   946 ;; Registers used:
   947 ;;		wreg, status,2, status,0
   948 ;; Tracked objects:
   949 ;;		On entry : 0/0
   950 ;;		On exit  : 0/0
   951 ;;		Unchanged: 0/0
   952 ;; Data sizes:     COMRAM   BANK0   BANK1   BANK2
   953 ;;      Params:         4       0       0       0
   954 ;;      Locals:         6       0       0       0
   955 ;;      Temps:          4       0       0       0
   956 ;;      Totals:        14       0       0       0
   957 ;;Total ram usage:       14 bytes
   958 ;; Hardware stack levels used:    1
   959 ;; This function calls:
   960 ;;		Nothing
   961 ;; This function is called by:
   962 ;;		_main
   963 ;; This function uses a non-reentrant model
   964 ;;
   965                           
   966                           	psect	text5
   967  003B60                     __ptext5:
   968                           	opt stack 0
   969  003B60                     ___xxtofl:
   970                           	opt stack 30
   971                           
   972                           ;incstack = 0
   973                           ;___xxtofl@sign stored from wreg
   974  003B60  6E09               	movwf	___xxtofl@sign,c
   975  003B62  5009               	movf	___xxtofl@sign,w,c
   976  003B64  A4D8               	btfss	status,2,c
   977  003B66  AE04               	btfss	___xxtofl@val+3,7,c
   978  003B68  D01A               	goto	l714
   979  003B6A  C001  F005         	movff	___xxtofl@val,??___xxtofl
   980  003B6E  C002  F006         	movff	___xxtofl@val+1,??___xxtofl+1
   981  003B72  C003  F007         	movff	___xxtofl@val+2,??___xxtofl+2
   982  003B76  C004  F008         	movff	___xxtofl@val+3,??___xxtofl+3
   983  003B7A  1E05               	comf	??___xxtofl,f,c
   984  003B7C  1E06               	comf	??___xxtofl+1,f,c
   985  003B7E  1E07               	comf	??___xxtofl+2,f,c
   986  003B80  1E08               	comf	??___xxtofl+3,f,c
   987  003B82  2A05               	incf	??___xxtofl,f,c
   988  003B84  0E00               	movlw	0
   989  003B86  2206               	addwfc	??___xxtofl+1,f,c
   990  003B88  2207               	addwfc	??___xxtofl+2,f,c
   991  003B8A  2208               	addwfc	??___xxtofl+3,f,c
   992  003B8C  C005  F00B         	movff	??___xxtofl,___xxtofl@arg
   993  003B90  C006  F00C         	movff	??___xxtofl+1,___xxtofl@arg+1
   994  003B94  C007  F00D         	movff	??___xxtofl+2,___xxtofl@arg+2
   995  003B98  C008  F00E         	movff	??___xxtofl+3,___xxtofl@arg+3
   996  003B9C  D008               	goto	l1484
   997  003B9E                     l714:
   998  003B9E  C001  F00B         	movff	___xxtofl@val,___xxtofl@arg
   999  003BA2  C002  F00C         	movff	___xxtofl@val+1,___xxtofl@arg+1
  1000  003BA6  C003  F00D         	movff	___xxtofl@val+2,___xxtofl@arg+2
  1001  003BAA  C004  F00E         	movff	___xxtofl@val+3,___xxtofl@arg+3
  1002  003BAE                     l1484:
  1003  003BAE  5001               	movf	___xxtofl@val,w,c
  1004  003BB0  1002               	iorwf	___xxtofl@val+1,w,c
  1005  003BB2  1003               	iorwf	___xxtofl@val+2,w,c
  1006  003BB4  1004               	iorwf	___xxtofl@val+3,w,c
  1007  003BB6  A4D8               	btfss	status,2,c
  1008  003BB8  D009               	goto	l1490
  1009  003BBA  0E00               	movlw	0
  1010  003BBC  6E01               	movwf	?___xxtofl,c
  1011  003BBE  0E00               	movlw	0
  1012  003BC0  6E02               	movwf	?___xxtofl+1,c
  1013  003BC2  0E00               	movlw	0
  1014  003BC4  6E03               	movwf	?___xxtofl+2,c
  1015  003BC6  0E00               	movlw	0
  1016  003BC8  6E04               	movwf	?___xxtofl+3,c
  1017  003BCA  0012               	return	
  1018  003BCC                     l1490:
  1019  003BCC  0E96               	movlw	150
  1020  003BCE  6E0A               	movwf	___xxtofl@exp,c
  1021  003BD0  D006               	goto	l1494
  1022  003BD2                     l1492:
  1023  003BD2  2A0A               	incf	___xxtofl@exp,f,c
  1024  003BD4  90D8               	bcf	status,0,c
  1025  003BD6  320E               	rrcf	___xxtofl@arg+3,f,c
  1026  003BD8  320D               	rrcf	___xxtofl@arg+2,f,c
  1027  003BDA  320C               	rrcf	___xxtofl@arg+1,f,c
  1028  003BDC  320B               	rrcf	___xxtofl@arg,f,c
  1029  003BDE                     l1494:
  1030  003BDE  0E00               	movlw	0
  1031  003BE0  140B               	andwf	___xxtofl@arg,w,c
  1032  003BE2  6E05               	movwf	??___xxtofl& (0+255),c
  1033  003BE4  0E00               	movlw	0
  1034  003BE6  140C               	andwf	___xxtofl@arg+1,w,c
  1035  003BE8  6E06               	movwf	(??___xxtofl+1)& (0+255),c
  1036  003BEA  0E00               	movlw	0
  1037  003BEC  140D               	andwf	___xxtofl@arg+2,w,c
  1038  003BEE  6E07               	movwf	(??___xxtofl+2)& (0+255),c
  1039  003BF0  0EFE               	movlw	254
  1040  003BF2  140E               	andwf	___xxtofl@arg+3,w,c
  1041  003BF4  6E08               	movwf	(??___xxtofl+3)& (0+255),c
  1042  003BF6  5005               	movf	??___xxtofl,w,c
  1043  003BF8  1006               	iorwf	??___xxtofl+1,w,c
  1044  003BFA  1007               	iorwf	??___xxtofl+2,w,c
  1045  003BFC  1008               	iorwf	??___xxtofl+3,w,c
  1046  003BFE  B4D8               	btfsc	status,2,c
  1047  003C00  D00D               	goto	l721
  1048  003C02  D7E7               	goto	l1492
  1049  003C04                     l1496:
  1050  003C04  2A0A               	incf	___xxtofl@exp,f,c
  1051  003C06  0E01               	movlw	1
  1052  003C08  260B               	addwf	___xxtofl@arg,f,c
  1053  003C0A  0E00               	movlw	0
  1054  003C0C  220C               	addwfc	___xxtofl@arg+1,f,c
  1055  003C0E  220D               	addwfc	___xxtofl@arg+2,f,c
  1056  003C10  220E               	addwfc	___xxtofl@arg+3,f,c
  1057  003C12  90D8               	bcf	status,0,c
  1058  003C14  320E               	rrcf	___xxtofl@arg+3,f,c
  1059  003C16  320D               	rrcf	___xxtofl@arg+2,f,c
  1060  003C18  320C               	rrcf	___xxtofl@arg+1,f,c
  1061  003C1A  320B               	rrcf	___xxtofl@arg,f,c
  1062  003C1C                     l721:
  1063  003C1C  0E00               	movlw	0
  1064  003C1E  140B               	andwf	___xxtofl@arg,w,c
  1065  003C20  6E05               	movwf	??___xxtofl& (0+255),c
  1066  003C22  0E00               	movlw	0
  1067  003C24  140C               	andwf	___xxtofl@arg+1,w,c
  1068  003C26  6E06               	movwf	(??___xxtofl+1)& (0+255),c
  1069  003C28  0E00               	movlw	0
  1070  003C2A  140D               	andwf	___xxtofl@arg+2,w,c
  1071  003C2C  6E07               	movwf	(??___xxtofl+2)& (0+255),c
  1072  003C2E  0EFF               	movlw	255
  1073  003C30  140E               	andwf	___xxtofl@arg+3,w,c
  1074  003C32  6E08               	movwf	(??___xxtofl+3)& (0+255),c
  1075  003C34  5005               	movf	??___xxtofl,w,c
  1076  003C36  1006               	iorwf	??___xxtofl+1,w,c
  1077  003C38  1007               	iorwf	??___xxtofl+2,w,c
  1078  003C3A  1008               	iorwf	??___xxtofl+3,w,c
  1079  003C3C  B4D8               	btfsc	status,2,c
  1080  003C3E  D007               	goto	l1504
  1081  003C40  D7E1               	goto	l1496
  1082  003C42                     l1502:
  1083  003C42  060A               	decf	___xxtofl@exp,f,c
  1084  003C44  90D8               	bcf	status,0,c
  1085  003C46  360B               	rlcf	___xxtofl@arg,f,c
  1086  003C48  360C               	rlcf	___xxtofl@arg+1,f,c
  1087  003C4A  360D               	rlcf	___xxtofl@arg+2,f,c
  1088  003C4C  360E               	rlcf	___xxtofl@arg+3,f,c
  1089  003C4E                     l1504:
  1090  003C4E  BE0D               	btfsc	___xxtofl@arg+2,7,c
  1091  003C50  D003               	goto	l728
  1092  003C52  0E02               	movlw	2
  1093  003C54  600A               	cpfslt	___xxtofl@exp,c
  1094  003C56  D7F5               	goto	l1502
  1095  003C58                     l728:
  1096  003C58  B00A               	btfsc	___xxtofl@exp,0,c
  1097  003C5A  D008               	goto	l729
  1098  003C5C  0EFF               	movlw	255
  1099  003C5E  160B               	andwf	___xxtofl@arg,f,c
  1100  003C60  0EFF               	movlw	255
  1101  003C62  160C               	andwf	___xxtofl@arg+1,f,c
  1102  003C64  0E7F               	movlw	127
  1103  003C66  160D               	andwf	___xxtofl@arg+2,f,c
  1104  003C68  0EFF               	movlw	255
  1105  003C6A  160E               	andwf	___xxtofl@arg+3,f,c
  1106  003C6C                     l729:
  1107  003C6C  90D8               	bcf	status,0,c
  1108  003C6E  320A               	rrcf	___xxtofl@exp,f,c
  1109  003C70  C00A  F005         	movff	___xxtofl@exp,??___xxtofl
  1110  003C74  6A06               	clrf	(??___xxtofl+1)& (0+255),c
  1111  003C76  6A07               	clrf	(??___xxtofl+2)& (0+255),c
  1112  003C78  6A08               	clrf	(??___xxtofl+3)& (0+255),c
  1113  003C7A  C005  F008         	movff	??___xxtofl,??___xxtofl+3
  1114  003C7E  6A07               	clrf	??___xxtofl+2,c
  1115  003C80  6A06               	clrf	??___xxtofl+1,c
  1116  003C82  6A05               	clrf	??___xxtofl,c
  1117  003C84  5005               	movf	??___xxtofl,w,c
  1118  003C86  120B               	iorwf	___xxtofl@arg,f,c
  1119  003C88  5006               	movf	??___xxtofl+1,w,c
  1120  003C8A  120C               	iorwf	___xxtofl@arg+1,f,c
  1121  003C8C  5007               	movf	??___xxtofl+2,w,c
  1122  003C8E  120D               	iorwf	___xxtofl@arg+2,f,c
  1123  003C90  5008               	movf	??___xxtofl+3,w,c
  1124  003C92  120E               	iorwf	___xxtofl@arg+3,f,c
  1125  003C94  5009               	movf	___xxtofl@sign,w,c
  1126  003C96  A4D8               	btfss	status,2,c
  1127  003C98  AE04               	btfss	___xxtofl@val+3,7,c
  1128  003C9A  D001               	goto	l1516
  1129  003C9C  8E0E               	bsf	___xxtofl@arg+3,7,c
  1130  003C9E                     l1516:
  1131  003C9E  C00B  F001         	movff	___xxtofl@arg,?___xxtofl
  1132  003CA2  C00C  F002         	movff	___xxtofl@arg+1,?___xxtofl+1
  1133  003CA6  C00D  F003         	movff	___xxtofl@arg+2,?___xxtofl+2
  1134  003CAA  C00E  F004         	movff	___xxtofl@arg+3,?___xxtofl+3
  1135  003CAE  0012               	return	
  1136  003CB0                     __end_of___xxtofl:
  1137                           	opt stack 0
  1138                           tblptru	equ	0xFF8
  1139                           tblptrh	equ	0xFF7
  1140                           tblptrl	equ	0xFF6
  1141                           tablat	equ	0xFF5
  1142                           prodh	equ	0xFF4
  1143                           prodl	equ	0xFF3
  1144                           postinc0	equ	0xFEE
  1145                           wreg	equ	0xFE8
  1146                           status	equ	0xFD8
  1147                           
  1148 ;; *************** function ___fltol *****************
  1149 ;; Defined at:
  1150 ;;		line 43 in file "C:\Program Files (x86)\Microchip\xc8\v1.35\sources\common\fltol.c"
  1151 ;; Parameters:    Size  Location     Type
  1152 ;;  f1              4   39[COMRAM] unsigned char 
  1153 ;; Auto vars:     Size  Location     Type
  1154 ;;  exp1            1   48[COMRAM] unsigned char 
  1155 ;;  sign1           1   47[COMRAM] unsigned char 
  1156 ;; Return value:  Size  Location     Type
  1157 ;;                  4   39[COMRAM] long 
  1158 ;; Registers used:
  1159 ;;		wreg, status,2, status,0
  1160 ;; Tracked objects:
  1161 ;;		On entry : 0/0
  1162 ;;		On exit  : 0/0
  1163 ;;		Unchanged: 0/0
  1164 ;; Data sizes:     COMRAM   BANK0   BANK1   BANK2
  1165 ;;      Params:         4       0       0       0
  1166 ;;      Locals:         2       0       0       0
  1167 ;;      Temps:          4       0       0       0
  1168 ;;      Totals:        10       0       0       0
  1169 ;;Total ram usage:       10 bytes
  1170 ;; Hardware stack levels used:    1
  1171 ;; This function calls:
  1172 ;;		Nothing
  1173 ;; This function is called by:
  1174 ;;		_main
  1175 ;; This function uses a non-reentrant model
  1176 ;;
  1177                           
  1178                           	psect	text6
  1179  00394A                     __ptext6:
  1180                           	opt stack 0
  1181  00394A                     ___fltol:
  1182                           	opt stack 30
  1183                           
  1184                           ;incstack = 0
  1185  00394A  342A               	rlcf	___fltol@f1+2,w,c
  1186  00394C  342B               	rlcf	___fltol@f1+3,w,c
  1187  00394E  6E31               	movwf	___fltol@exp1,c
  1188  003950  5031               	movf	___fltol@exp1,w,c
  1189  003952  A4D8               	btfss	status,2,c
  1190  003954  D009               	goto	l1440
  1191  003956  0E00               	movlw	0
  1192  003958  6E28               	movwf	?___fltol,c
  1193  00395A  0E00               	movlw	0
  1194  00395C  6E29               	movwf	?___fltol+1,c
  1195  00395E  0E00               	movlw	0
  1196  003960  6E2A               	movwf	?___fltol+2,c
  1197  003962  0E00               	movlw	0
  1198  003964  6E2B               	movwf	?___fltol+3,c
  1199  003966  0012               	return	
  1200  003968                     l1440:
  1201  003968  C028  F02C         	movff	___fltol@f1,??___fltol
  1202  00396C  C029  F02D         	movff	___fltol@f1+1,??___fltol+1
  1203  003970  C02A  F02E         	movff	___fltol@f1+2,??___fltol+2
  1204  003974  C02B  F02F         	movff	___fltol@f1+3,??___fltol+3
  1205  003978  0E20               	movlw	32
  1206  00397A  D005               	goto	u920
  1207  00397C                     u925:
  1208  00397C  90D8               	bcf	status,0,c
  1209  00397E  322F               	rrcf	??___fltol+3,f,c
  1210  003980  322E               	rrcf	??___fltol+2,f,c
  1211  003982  322D               	rrcf	??___fltol+1,f,c
  1212  003984  322C               	rrcf	??___fltol,f,c
  1213  003986                     u920:
  1214  003986  2EE8               	decfsz	wreg,f,c
  1215  003988  D7F9               	goto	u925
  1216  00398A  502C               	movf	??___fltol,w,c
  1217  00398C  6E30               	movwf	___fltol@sign1,c
  1218  00398E  8E2A               	bsf	___fltol@f1+2,7,c
  1219  003990  0EFF               	movlw	255
  1220  003992  1628               	andwf	___fltol@f1,f,c
  1221  003994  0EFF               	movlw	255
  1222  003996  1629               	andwf	___fltol@f1+1,f,c
  1223  003998  0EFF               	movlw	255
  1224  00399A  162A               	andwf	___fltol@f1+2,f,c
  1225  00399C  0E00               	movlw	0
  1226  00399E  162B               	andwf	___fltol@f1+3,f,c
  1227  0039A0  0E96               	movlw	150
  1228  0039A2  5E31               	subwf	___fltol@exp1,f,c
  1229  0039A4  AE31               	btfss	___fltol@exp1,7,c
  1230  0039A6  D016               	goto	l1460
  1231  0039A8  5031               	movf	___fltol@exp1,w,c
  1232  0039AA  0A80               	xorlw	128
  1233  0039AC  0F97               	addlw	151
  1234  0039AE  B0D8               	btfsc	status,0,c
  1235  0039B0  D009               	goto	l1456
  1236  0039B2  0E00               	movlw	0
  1237  0039B4  6E28               	movwf	?___fltol,c
  1238  0039B6  0E00               	movlw	0
  1239  0039B8  6E29               	movwf	?___fltol+1,c
  1240  0039BA  0E00               	movlw	0
  1241  0039BC  6E2A               	movwf	?___fltol+2,c
  1242  0039BE  0E00               	movlw	0
  1243  0039C0  6E2B               	movwf	?___fltol+3,c
  1244  0039C2  0012               	return	
  1245  0039C4                     l1456:
  1246  0039C4  90D8               	bcf	status,0,c
  1247  0039C6  322B               	rrcf	___fltol@f1+3,f,c
  1248  0039C8  322A               	rrcf	___fltol@f1+2,f,c
  1249  0039CA  3229               	rrcf	___fltol@f1+1,f,c
  1250  0039CC  3228               	rrcf	___fltol@f1,f,c
  1251  0039CE  3E31               	incfsz	___fltol@exp1,f,c
  1252  0039D0  D7F9               	goto	l1456
  1253  0039D2  D015               	goto	l1470
  1254  0039D4                     l1460:
  1255  0039D4  0E1F               	movlw	31
  1256  0039D6  6431               	cpfsgt	___fltol@exp1,c
  1257  0039D8  D00F               	goto	l1468
  1258  0039DA  0E00               	movlw	0
  1259  0039DC  6E28               	movwf	?___fltol,c
  1260  0039DE  0E00               	movlw	0
  1261  0039E0  6E29               	movwf	?___fltol+1,c
  1262  0039E2  0E00               	movlw	0
  1263  0039E4  6E2A               	movwf	?___fltol+2,c
  1264  0039E6  0E00               	movlw	0
  1265  0039E8  6E2B               	movwf	?___fltol+3,c
  1266  0039EA  0012               	return	
  1267  0039EC                     l1466:
  1268  0039EC  90D8               	bcf	status,0,c
  1269  0039EE  3628               	rlcf	___fltol@f1,f,c
  1270  0039F0  3629               	rlcf	___fltol@f1+1,f,c
  1271  0039F2  362A               	rlcf	___fltol@f1+2,f,c
  1272  0039F4  362B               	rlcf	___fltol@f1+3,f,c
  1273  0039F6  0631               	decf	___fltol@exp1,f,c
  1274  0039F8                     l1468:
  1275  0039F8  5031               	movf	___fltol@exp1,w,c
  1276  0039FA  A4D8               	btfss	status,2,c
  1277  0039FC  D7F7               	goto	l1466
  1278  0039FE                     l1470:
  1279  0039FE  5030               	movf	___fltol@sign1,w,c
  1280  003A00  B4D8               	btfsc	status,2,c
  1281  003A02  D008               	goto	l1474
  1282  003A04  1E2B               	comf	___fltol@f1+3,f,c
  1283  003A06  1E2A               	comf	___fltol@f1+2,f,c
  1284  003A08  1E29               	comf	___fltol@f1+1,f,c
  1285  003A0A  6C28               	negf	___fltol@f1,c
  1286  003A0C  0E00               	movlw	0
  1287  003A0E  2229               	addwfc	___fltol@f1+1,f,c
  1288  003A10  222A               	addwfc	___fltol@f1+2,f,c
  1289  003A12  222B               	addwfc	___fltol@f1+3,f,c
  1290  003A14                     l1474:
  1291  003A14  C028  F028         	movff	___fltol@f1,?___fltol
  1292  003A18  C029  F029         	movff	___fltol@f1+1,?___fltol+1
  1293  003A1C  C02A  F02A         	movff	___fltol@f1+2,?___fltol+2
  1294  003A20  C02B  F02B         	movff	___fltol@f1+3,?___fltol+3
  1295  003A24  0012               	return	
  1296  003A26                     __end_of___fltol:
  1297                           	opt stack 0
  1298                           tblptru	equ	0xFF8
  1299                           tblptrh	equ	0xFF7
  1300                           tblptrl	equ	0xFF6
  1301                           tablat	equ	0xFF5
  1302                           prodh	equ	0xFF4
  1303                           prodl	equ	0xFF3
  1304                           postinc0	equ	0xFEE
  1305                           wreg	equ	0xFE8
  1306                           status	equ	0xFD8
  1307                           
  1308 ;; *************** function ___flmul *****************
  1309 ;; Defined at:
  1310 ;;		line 8 in file "C:\Program Files (x86)\Microchip\xc8\v1.35\sources\common\sprcmul.c"
  1311 ;; Parameters:    Size  Location     Type
  1312 ;;  b               4   14[COMRAM] long 
  1313 ;;  a               4   18[COMRAM] long 
  1314 ;; Auto vars:     Size  Location     Type
  1315 ;;  prod            4   33[COMRAM] struct .
  1316 ;;  grs             4   27[COMRAM] unsigned long 
  1317 ;;  temp            2   37[COMRAM] struct .
  1318 ;;  bexp            1   32[COMRAM] unsigned char 
  1319 ;;  aexp            1   31[COMRAM] unsigned char 
  1320 ;;  sign            1   26[COMRAM] unsigned char 
  1321 ;; Return value:  Size  Location     Type
  1322 ;;                  4   14[COMRAM] unsigned char 
  1323 ;; Registers used:
  1324 ;;		wreg, status,2, status,0, prodl, prodh
  1325 ;; Tracked objects:
  1326 ;;		On entry : 0/0
  1327 ;;		On exit  : 0/0
  1328 ;;		Unchanged: 0/0
  1329 ;; Data sizes:     COMRAM   BANK0   BANK1   BANK2
  1330 ;;      Params:         8       0       0       0
  1331 ;;      Locals:        13       0       0       0
  1332 ;;      Temps:          4       0       0       0
  1333 ;;      Totals:        25       0       0       0
  1334 ;;Total ram usage:       25 bytes
  1335 ;; Hardware stack levels used:    1
  1336 ;; This function calls:
  1337 ;;		Nothing
  1338 ;; This function is called by:
  1339 ;;		_main
  1340 ;; This function uses a non-reentrant model
  1341 ;;
  1342                           
  1343                           	psect	text7
  1344  003CB0                     __ptext7:
  1345                           	opt stack 0
  1346  003CB0                     ___flmul:
  1347                           	opt stack 30
  1348                           
  1349                           ;incstack = 0
  1350  003CB0  5012               	movf	___flmul@b+3,w,c
  1351  003CB2  0B80               	andlw	128
  1352  003CB4  6E1B               	movwf	___flmul@sign,c
  1353  003CB6  5012               	movf	___flmul@b+3,w,c
  1354  003CB8  2412               	addwf	___flmul@b+3,w,c
  1355  003CBA  6E21               	movwf	___flmul@bexp,c
  1356  003CBC  BE11               	btfsc	___flmul@b+2,7,c
  1357  003CBE  8021               	bsf	___flmul@bexp,0,c
  1358  003CC0  5021               	movf	___flmul@bexp,w,c
  1359  003CC2  B4D8               	btfsc	status,2,c
  1360  003CC4  D00D               	goto	l1318
  1361  003CC6  2821               	incf	___flmul@bexp,w,c
  1362  003CC8  A4D8               	btfss	status,2,c
  1363  003CCA  D008               	goto	l1316
  1364  003CCC  0E00               	movlw	0
  1365  003CCE  6E0F               	movwf	___flmul@b,c
  1366  003CD0  0E00               	movlw	0
  1367  003CD2  6E10               	movwf	___flmul@b+1,c
  1368  003CD4  0E00               	movlw	0
  1369  003CD6  6E11               	movwf	___flmul@b+2,c
  1370  003CD8  0E00               	movlw	0
  1371  003CDA  6E12               	movwf	___flmul@b+3,c
  1372  003CDC                     l1316:
  1373  003CDC  8E11               	bsf	___flmul@b+2,7,c
  1374  003CDE  D008               	goto	l1320
  1375  003CE0                     l1318:
  1376  003CE0  0E00               	movlw	0
  1377  003CE2  6E0F               	movwf	___flmul@b,c
  1378  003CE4  0E00               	movlw	0
  1379  003CE6  6E10               	movwf	___flmul@b+1,c
  1380  003CE8  0E00               	movlw	0
  1381  003CEA  6E11               	movwf	___flmul@b+2,c
  1382  003CEC  0E00               	movlw	0
  1383  003CEE  6E12               	movwf	___flmul@b+3,c
  1384  003CF0                     l1320:
  1385  003CF0  5016               	movf	___flmul@a+3,w,c
  1386  003CF2  0B80               	andlw	128
  1387  003CF4  1A1B               	xorwf	___flmul@sign,f,c
  1388  003CF6  5016               	movf	___flmul@a+3,w,c
  1389  003CF8  2416               	addwf	___flmul@a+3,w,c
  1390  003CFA  6E20               	movwf	___flmul@aexp,c
  1391  003CFC  BE15               	btfsc	___flmul@a+2,7,c
  1392  003CFE  8020               	bsf	___flmul@aexp,0,c
  1393  003D00  5020               	movf	___flmul@aexp,w,c
  1394  003D02  B4D8               	btfsc	status,2,c
  1395  003D04  D00D               	goto	l1336
  1396  003D06  2820               	incf	___flmul@aexp,w,c
  1397  003D08  A4D8               	btfss	status,2,c
  1398  003D0A  D008               	goto	l1334
  1399  003D0C  0E00               	movlw	0
  1400  003D0E  6E13               	movwf	___flmul@a,c
  1401  003D10  0E00               	movlw	0
  1402  003D12  6E14               	movwf	___flmul@a+1,c
  1403  003D14  0E00               	movlw	0
  1404  003D16  6E15               	movwf	___flmul@a+2,c
  1405  003D18  0E00               	movlw	0
  1406  003D1A  6E16               	movwf	___flmul@a+3,c
  1407  003D1C                     l1334:
  1408  003D1C  8E15               	bsf	___flmul@a+2,7,c
  1409  003D1E  D008               	goto	l692
  1410  003D20                     l1336:
  1411  003D20  0E00               	movlw	0
  1412  003D22  6E13               	movwf	___flmul@a,c
  1413  003D24  0E00               	movlw	0
  1414  003D26  6E14               	movwf	___flmul@a+1,c
  1415  003D28  0E00               	movlw	0
  1416  003D2A  6E15               	movwf	___flmul@a+2,c
  1417  003D2C  0E00               	movlw	0
  1418  003D2E  6E16               	movwf	___flmul@a+3,c
  1419  003D30                     l692:
  1420  003D30  5020               	movf	___flmul@aexp,w,c
  1421  003D32  B4D8               	btfsc	status,2,c
  1422  003D34  D003               	goto	l1340
  1423  003D36  5021               	movf	___flmul@bexp,w,c
  1424  003D38  A4D8               	btfss	status,2,c
  1425  003D3A  D009               	goto	l1344
  1426  003D3C                     l1340:
  1427  003D3C  0E00               	movlw	0
  1428  003D3E  6E0F               	movwf	?___flmul,c
  1429  003D40  0E00               	movlw	0
  1430  003D42  6E10               	movwf	?___flmul+1,c
  1431  003D44  0E00               	movlw	0
  1432  003D46  6E11               	movwf	?___flmul+2,c
  1433  003D48  0E00               	movlw	0
  1434  003D4A  6E12               	movwf	?___flmul+3,c
  1435  003D4C  0012               	return	
  1436  003D4E                     l1344:
  1437  003D4E  5015               	movf	___flmul@a+2,w,c
  1438  003D50  020F               	mulwf	___flmul@b,c
  1439  003D52  CFF3 F026          	movff	prodl,___flmul@temp
  1440  003D56  CFF4 F027          	movff	prodh,___flmul@temp+1
  1441  003D5A  5026               	movf	___flmul@temp,w,c
  1442  003D5C  6E1C               	movwf	___flmul@grs,c
  1443  003D5E  6A1D               	clrf	___flmul@grs+1,c
  1444  003D60  6A1E               	clrf	___flmul@grs+2,c
  1445  003D62  6A1F               	clrf	___flmul@grs+3,c
  1446  003D64  5027               	movf	___flmul@temp+1,w,c
  1447  003D66  6E22               	movwf	___flmul@prod,c
  1448  003D68  6A23               	clrf	___flmul@prod+1,c
  1449  003D6A  6A24               	clrf	___flmul@prod+2,c
  1450  003D6C  6A25               	clrf	___flmul@prod+3,c
  1451  003D6E  5014               	movf	___flmul@a+1,w,c
  1452  003D70  0210               	mulwf	___flmul@b+1,c
  1453  003D72  CFF3 F026          	movff	prodl,___flmul@temp
  1454  003D76  CFF4 F027          	movff	prodh,___flmul@temp+1
  1455  003D7A  5026               	movf	___flmul@temp,w,c
  1456  003D7C  261C               	addwf	___flmul@grs,f,c
  1457  003D7E  0E00               	movlw	0
  1458  003D80  221D               	addwfc	___flmul@grs+1,f,c
  1459  003D82  221E               	addwfc	___flmul@grs+2,f,c
  1460  003D84  221F               	addwfc	___flmul@grs+3,f,c
  1461  003D86  5027               	movf	___flmul@temp+1,w,c
  1462  003D88  2622               	addwf	___flmul@prod,f,c
  1463  003D8A  0E00               	movlw	0
  1464  003D8C  2223               	addwfc	___flmul@prod+1,f,c
  1465  003D8E  2224               	addwfc	___flmul@prod+2,f,c
  1466  003D90  2225               	addwfc	___flmul@prod+3,f,c
  1467  003D92  5013               	movf	___flmul@a,w,c
  1468  003D94  0211               	mulwf	___flmul@b+2,c
  1469  003D96  CFF3 F026          	movff	prodl,___flmul@temp
  1470  003D9A  CFF4 F027          	movff	prodh,___flmul@temp+1
  1471  003D9E  5026               	movf	___flmul@temp,w,c
  1472  003DA0  261C               	addwf	___flmul@grs,f,c
  1473  003DA2  0E00               	movlw	0
  1474  003DA4  221D               	addwfc	___flmul@grs+1,f,c
  1475  003DA6  221E               	addwfc	___flmul@grs+2,f,c
  1476  003DA8  221F               	addwfc	___flmul@grs+3,f,c
  1477  003DAA  5027               	movf	___flmul@temp+1,w,c
  1478  003DAC  2622               	addwf	___flmul@prod,f,c
  1479  003DAE  0E00               	movlw	0
  1480  003DB0  2223               	addwfc	___flmul@prod+1,f,c
  1481  003DB2  2224               	addwfc	___flmul@prod+2,f,c
  1482  003DB4  2225               	addwfc	___flmul@prod+3,f,c
  1483  003DB6  C01E  F01F         	movff	___flmul@grs+2,___flmul@grs+3
  1484  003DBA  C01D  F01E         	movff	___flmul@grs+1,___flmul@grs+2
  1485  003DBE  C01C  F01D         	movff	___flmul@grs,___flmul@grs+1
  1486  003DC2  6A1C               	clrf	___flmul@grs,c
  1487  003DC4  5013               	movf	___flmul@a,w,c
  1488  003DC6  0210               	mulwf	___flmul@b+1,c
  1489  003DC8  CFF3 F026          	movff	prodl,___flmul@temp
  1490  003DCC  CFF4 F027          	movff	prodh,___flmul@temp+1
  1491  003DD0  5026               	movf	___flmul@temp,w,c
  1492  003DD2  261C               	addwf	___flmul@grs,f,c
  1493  003DD4  5027               	movf	___flmul@temp+1,w,c
  1494  003DD6  221D               	addwfc	___flmul@grs+1,f,c
  1495  003DD8  0E00               	movlw	0
  1496  003DDA  221E               	addwfc	___flmul@grs+2,f,c
  1497  003DDC  0E00               	movlw	0
  1498  003DDE  221F               	addwfc	___flmul@grs+3,f,c
  1499  003DE0  5014               	movf	___flmul@a+1,w,c
  1500  003DE2  020F               	mulwf	___flmul@b,c
  1501  003DE4  CFF3 F026          	movff	prodl,___flmul@temp
  1502  003DE8  CFF4 F027          	movff	prodh,___flmul@temp+1
  1503  003DEC  5026               	movf	___flmul@temp,w,c
  1504  003DEE  261C               	addwf	___flmul@grs,f,c
  1505  003DF0  5027               	movf	___flmul@temp+1,w,c
  1506  003DF2  221D               	addwfc	___flmul@grs+1,f,c
  1507  003DF4  0E00               	movlw	0
  1508  003DF6  221E               	addwfc	___flmul@grs+2,f,c
  1509  003DF8  0E00               	movlw	0
  1510  003DFA  221F               	addwfc	___flmul@grs+3,f,c
  1511  003DFC  C01E  F01F         	movff	___flmul@grs+2,___flmul@grs+3
  1512  003E00  C01D  F01E         	movff	___flmul@grs+1,___flmul@grs+2
  1513  003E04  C01C  F01D         	movff	___flmul@grs,___flmul@grs+1
  1514  003E08  6A1C               	clrf	___flmul@grs,c
  1515  003E0A  5013               	movf	___flmul@a,w,c
  1516  003E0C  020F               	mulwf	___flmul@b,c
  1517  003E0E  CFF3 F026          	movff	prodl,___flmul@temp
  1518  003E12  CFF4 F027          	movff	prodh,___flmul@temp+1
  1519  003E16  5026               	movf	___flmul@temp,w,c
  1520  003E18  261C               	addwf	___flmul@grs,f,c
  1521  003E1A  5027               	movf	___flmul@temp+1,w,c
  1522  003E1C  221D               	addwfc	___flmul@grs+1,f,c
  1523  003E1E  0E00               	movlw	0
  1524  003E20  221E               	addwfc	___flmul@grs+2,f,c
  1525  003E22  0E00               	movlw	0
  1526  003E24  221F               	addwfc	___flmul@grs+3,f,c
  1527  003E26  5015               	movf	___flmul@a+2,w,c
  1528  003E28  0210               	mulwf	___flmul@b+1,c
  1529  003E2A  CFF3 F026          	movff	prodl,___flmul@temp
  1530  003E2E  CFF4 F027          	movff	prodh,___flmul@temp+1
  1531  003E32  5026               	movf	___flmul@temp,w,c
  1532  003E34  2622               	addwf	___flmul@prod,f,c
  1533  003E36  5027               	movf	___flmul@temp+1,w,c
  1534  003E38  2223               	addwfc	___flmul@prod+1,f,c
  1535  003E3A  0E00               	movlw	0
  1536  003E3C  2224               	addwfc	___flmul@prod+2,f,c
  1537  003E3E  0E00               	movlw	0
  1538  003E40  2225               	addwfc	___flmul@prod+3,f,c
  1539  003E42  5014               	movf	___flmul@a+1,w,c
  1540  003E44  0211               	mulwf	___flmul@b+2,c
  1541  003E46  CFF3 F026          	movff	prodl,___flmul@temp
  1542  003E4A  CFF4 F027          	movff	prodh,___flmul@temp+1
  1543  003E4E  5026               	movf	___flmul@temp,w,c
  1544  003E50  2622               	addwf	___flmul@prod,f,c
  1545  003E52  5027               	movf	___flmul@temp+1,w,c
  1546  003E54  2223               	addwfc	___flmul@prod+1,f,c
  1547  003E56  0E00               	movlw	0
  1548  003E58  2224               	addwfc	___flmul@prod+2,f,c
  1549  003E5A  0E00               	movlw	0
  1550  003E5C  2225               	addwfc	___flmul@prod+3,f,c
  1551  003E5E  5015               	movf	___flmul@a+2,w,c
  1552  003E60  0211               	mulwf	___flmul@b+2,c
  1553  003E62  CFF3 F026          	movff	prodl,___flmul@temp
  1554  003E66  CFF4 F027          	movff	prodh,___flmul@temp+1
  1555  003E6A  5026               	movf	___flmul@temp,w,c
  1556  003E6C  6E17               	movwf	??___flmul& (0+255),c
  1557  003E6E  5027               	movf	___flmul@temp+1,w,c
  1558  003E70  6E18               	movwf	(??___flmul+1)& (0+255),c
  1559  003E72  6A19               	clrf	(??___flmul+2)& (0+255),c
  1560  003E74  6A1A               	clrf	(??___flmul+3)& (0+255),c
  1561  003E76  C019  F01A         	movff	??___flmul+2,??___flmul+3
  1562  003E7A  C018  F019         	movff	??___flmul+1,??___flmul+2
  1563  003E7E  C017  F018         	movff	??___flmul,??___flmul+1
  1564  003E82  6A17               	clrf	??___flmul,c
  1565  003E84  5017               	movf	??___flmul,w,c
  1566  003E86  2622               	addwf	___flmul@prod,f,c
  1567  003E88  5018               	movf	??___flmul+1,w,c
  1568  003E8A  2223               	addwfc	___flmul@prod+1,f,c
  1569  003E8C  5019               	movf	??___flmul+2,w,c
  1570  003E8E  2224               	addwfc	___flmul@prod+2,f,c
  1571  003E90  501A               	movf	??___flmul+3,w,c
  1572  003E92  2225               	addwfc	___flmul@prod+3,f,c
  1573  003E94  C01C  F017         	movff	___flmul@grs,??___flmul
  1574  003E98  C01D  F018         	movff	___flmul@grs+1,??___flmul+1
  1575  003E9C  C01E  F019         	movff	___flmul@grs+2,??___flmul+2
  1576  003EA0  C01F  F01A         	movff	___flmul@grs+3,??___flmul+3
  1577  003EA4  0E19               	movlw	25
  1578  003EA6  D005               	goto	u800
  1579  003EA8                     u805:
  1580  003EA8  90D8               	bcf	status,0,c
  1581  003EAA  321A               	rrcf	??___flmul+3,f,c
  1582  003EAC  3219               	rrcf	??___flmul+2,f,c
  1583  003EAE  3218               	rrcf	??___flmul+1,f,c
  1584  003EB0  3217               	rrcf	??___flmul,f,c
  1585  003EB2                     u800:
  1586  003EB2  2EE8               	decfsz	wreg,f,c
  1587  003EB4  D7F9               	goto	u805
  1588  003EB6  5017               	movf	??___flmul,w,c
  1589  003EB8  2622               	addwf	___flmul@prod,f,c
  1590  003EBA  5018               	movf	??___flmul+1,w,c
  1591  003EBC  2223               	addwfc	___flmul@prod+1,f,c
  1592  003EBE  5019               	movf	??___flmul+2,w,c
  1593  003EC0  2224               	addwfc	___flmul@prod+2,f,c
  1594  003EC2  501A               	movf	??___flmul+3,w,c
  1595  003EC4  2225               	addwfc	___flmul@prod+3,f,c
  1596  003EC6  C01E  F01F         	movff	___flmul@grs+2,___flmul@grs+3
  1597  003ECA  C01D  F01E         	movff	___flmul@grs+1,___flmul@grs+2
  1598  003ECE  C01C  F01D         	movff	___flmul@grs,___flmul@grs+1
  1599  003ED2  6A1C               	clrf	___flmul@grs,c
  1600  003ED4  5020               	movf	___flmul@aexp,w,c
  1601  003ED6  C021  F017         	movff	___flmul@bexp,??___flmul
  1602  003EDA  6A18               	clrf	(??___flmul+1)& (0+255),c
  1603  003EDC  2617               	addwf	??___flmul,f,c
  1604  003EDE  0E00               	movlw	0
  1605  003EE0  2218               	addwfc	??___flmul+1,f,c
  1606  003EE2  0E82               	movlw	130
  1607  003EE4  2417               	addwf	??___flmul,w,c
  1608  003EE6  6E26               	movwf	___flmul@temp,c
  1609  003EE8  0EFF               	movlw	255
  1610  003EEA  2018               	addwfc	??___flmul+1,w,c
  1611  003EEC  6E27               	movwf	___flmul@temp+1,c
  1612  003EEE  D00F               	goto	l1392
  1613  003EF0                     l1386:
  1614  003EF0  90D8               	bcf	status,0,c
  1615  003EF2  3622               	rlcf	___flmul@prod,f,c
  1616  003EF4  3623               	rlcf	___flmul@prod+1,f,c
  1617  003EF6  3624               	rlcf	___flmul@prod+2,f,c
  1618  003EF8  3625               	rlcf	___flmul@prod+3,f,c
  1619  003EFA  BE1F               	btfsc	___flmul@grs+3,7,c
  1620  003EFC  8022               	bsf	___flmul@prod,0,c
  1621  003EFE  90D8               	bcf	status,0,c
  1622  003F00  361C               	rlcf	___flmul@grs,f,c
  1623  003F02  361D               	rlcf	___flmul@grs+1,f,c
  1624  003F04  361E               	rlcf	___flmul@grs+2,f,c
  1625  003F06  361F               	rlcf	___flmul@grs+3,f,c
  1626  003F08  0626               	decf	___flmul@temp,f,c
  1627  003F0A  A0D8               	btfss	status,0,c
  1628  003F0C  0627               	decf	___flmul@temp+1,f,c
  1629  003F0E                     l1392:
  1630  003F0E  AE24               	btfss	___flmul@prod+2,7,c
  1631  003F10  D7EF               	goto	l1386
  1632  003F12  0E00               	movlw	0
  1633  003F14  6E20               	movwf	___flmul@aexp,c
  1634  003F16  AE1F               	btfss	___flmul@grs+3,7,c
  1635  003F18  D016               	goto	l701
  1636  003F1A  0EFF               	movlw	255
  1637  003F1C  141C               	andwf	___flmul@grs,w,c
  1638  003F1E  6E17               	movwf	??___flmul& (0+255),c
  1639  003F20  0EFF               	movlw	255
  1640  003F22  141D               	andwf	___flmul@grs+1,w,c
  1641  003F24  6E18               	movwf	(??___flmul+1)& (0+255),c
  1642  003F26  0EFF               	movlw	255
  1643  003F28  141E               	andwf	___flmul@grs+2,w,c
  1644  003F2A  6E19               	movwf	(??___flmul+2)& (0+255),c
  1645  003F2C  0E7F               	movlw	127
  1646  003F2E  141F               	andwf	___flmul@grs+3,w,c
  1647  003F30  6E1A               	movwf	(??___flmul+3)& (0+255),c
  1648  003F32  5017               	movf	??___flmul,w,c
  1649  003F34  1018               	iorwf	??___flmul+1,w,c
  1650  003F36  1019               	iorwf	??___flmul+2,w,c
  1651  003F38  101A               	iorwf	??___flmul+3,w,c
  1652  003F3A  A4D8               	btfss	status,2,c
  1653  003F3C  D002               	goto	l1402
  1654  003F3E  A022               	btfss	___flmul@prod,0,c
  1655  003F40  D002               	goto	l701
  1656  003F42                     l1402:
  1657  003F42  0E01               	movlw	1
  1658  003F44  6E20               	movwf	___flmul@aexp,c
  1659  003F46                     l701:
  1660  003F46  5020               	movf	___flmul@aexp,w,c
  1661  003F48  B4D8               	btfsc	status,2,c
  1662  003F4A  D01F               	goto	l1412
  1663  003F4C  0E01               	movlw	1
  1664  003F4E  2622               	addwf	___flmul@prod,f,c
  1665  003F50  0E00               	movlw	0
  1666  003F52  2223               	addwfc	___flmul@prod+1,f,c
  1667  003F54  2224               	addwfc	___flmul@prod+2,f,c
  1668  003F56  2225               	addwfc	___flmul@prod+3,f,c
  1669  003F58  A025               	btfss	___flmul@prod+3,0,c
  1670  003F5A  D017               	goto	l1412
  1671  003F5C  C022  F017         	movff	___flmul@prod,??___flmul
  1672  003F60  C023  F018         	movff	___flmul@prod+1,??___flmul+1
  1673  003F64  C024  F019         	movff	___flmul@prod+2,??___flmul+2
  1674  003F68  C025  F01A         	movff	___flmul@prod+3,??___flmul+3
  1675  003F6C  341A               	rlcf	??___flmul+3,w,c
  1676  003F6E  321A               	rrcf	??___flmul+3,f,c
  1677  003F70  3219               	rrcf	??___flmul+2,f,c
  1678  003F72  3218               	rrcf	??___flmul+1,f,c
  1679  003F74  3217               	rrcf	??___flmul,f,c
  1680  003F76  C017  F022         	movff	??___flmul,___flmul@prod
  1681  003F7A  C018  F023         	movff	??___flmul+1,___flmul@prod+1
  1682  003F7E  C019  F024         	movff	??___flmul+2,___flmul@prod+2
  1683  003F82  C01A  F025         	movff	??___flmul+3,___flmul@prod+3
  1684  003F86  4A26               	infsnz	___flmul@temp,f,c
  1685  003F88  2A27               	incf	___flmul@temp+1,f,c
  1686  003F8A                     l1412:
  1687  003F8A  BE27               	btfsc	___flmul@temp+1,7,c
  1688  003F8C  D00D               	goto	l1416
  1689  003F8E  5027               	movf	___flmul@temp+1,w,c
  1690  003F90  E103               	bnz	u880
  1691  003F92  2826               	incf	___flmul@temp,w,c
  1692  003F94  A0D8               	btfss	status,0,c
  1693  003F96  D008               	goto	l1416
  1694  003F98                     u880:
  1695  003F98  0E00               	movlw	0
  1696  003F9A  6E22               	movwf	___flmul@prod,c
  1697  003F9C  0E00               	movlw	0
  1698  003F9E  6E23               	movwf	___flmul@prod+1,c
  1699  003FA0  0E80               	movlw	128
  1700  003FA2  6E24               	movwf	___flmul@prod+2,c
  1701  003FA4  0E7F               	movlw	127
  1702  003FA6  D020               	goto	L2
  1703  003FA8                     l1416:
  1704  003FA8  BE27               	btfsc	___flmul@temp+1,7,c
  1705  003FAA  D005               	goto	l1418
  1706  003FAC  5027               	movf	___flmul@temp+1,w,c
  1707  003FAE  E10E               	bnz	l709
  1708  003FB0  0426               	decf	___flmul@temp,w,c
  1709  003FB2  B0D8               	btfsc	status,0,c
  1710  003FB4  D00B               	goto	l709
  1711  003FB6                     l1418:
  1712  003FB6  0E00               	movlw	0
  1713  003FB8  6E22               	movwf	___flmul@prod,c
  1714  003FBA  0E00               	movlw	0
  1715  003FBC  6E23               	movwf	___flmul@prod+1,c
  1716  003FBE  0E00               	movlw	0
  1717  003FC0  6E24               	movwf	___flmul@prod+2,c
  1718  003FC2  0E00               	movlw	0
  1719  003FC4  6E25               	movwf	___flmul@prod+3,c
  1720  003FC6  0E00               	movlw	0
  1721  003FC8  6E1B               	movwf	___flmul@sign,c
  1722  003FCA  D00F               	goto	l1428
  1723  003FCC                     l709:
  1724  003FCC  C026  F021         	movff	___flmul@temp,___flmul@bexp
  1725  003FD0  0EFF               	movlw	255
  1726  003FD2  1622               	andwf	___flmul@prod,f,c
  1727  003FD4  0EFF               	movlw	255
  1728  003FD6  1623               	andwf	___flmul@prod+1,f,c
  1729  003FD8  0E7F               	movlw	127
  1730  003FDA  1624               	andwf	___flmul@prod+2,f,c
  1731  003FDC  0E00               	movlw	0
  1732  003FDE  1625               	andwf	___flmul@prod+3,f,c
  1733  003FE0  B021               	btfsc	___flmul@bexp,0,c
  1734  003FE2  8E24               	bsf	___flmul@prod+2,7,c
  1735  003FE4  90D8               	bcf	status,0,c
  1736  003FE6  3021               	rrcf	___flmul@bexp,w,c
  1737  003FE8                     L2:
  1738  003FE8  6E25               	movwf	___flmul@prod+3,c
  1739  003FEA                     l1428:
  1740  003FEA  501B               	movf	___flmul@sign,w,c
  1741  003FEC  1225               	iorwf	___flmul@prod+3,f,c
  1742  003FEE  C022  F00F         	movff	___flmul@prod,?___flmul
  1743  003FF2  C023  F010         	movff	___flmul@prod+1,?___flmul+1
  1744  003FF6  C024  F011         	movff	___flmul@prod+2,?___flmul+2
  1745  003FFA  C025  F012         	movff	___flmul@prod+3,?___flmul+3
  1746  003FFE  0012               	return	
  1747  004000                     __end_of___flmul:
  1748                           	opt stack 0
  1749                           tblptru	equ	0xFF8
  1750                           tblptrh	equ	0xFF7
  1751                           tblptrl	equ	0xFF6
  1752                           tablat	equ	0xFF5
  1753                           prodh	equ	0xFF4
  1754                           prodl	equ	0xFF3
  1755                           postinc0	equ	0xFEE
  1756                           wreg	equ	0xFE8
  1757                           status	equ	0xFD8
  1758                           
  1759 ;; *************** function _USART_Send *****************
  1760 ;; Defined at:
  1761 ;;		line 122 in file "telecomando.c"
  1762 ;; Parameters:    Size  Location     Type
  1763 ;;		None
  1764 ;; Auto vars:     Size  Location     Type
  1765 ;;		None
  1766 ;; Return value:  Size  Location     Type
  1767 ;;		None               void
  1768 ;; Registers used:
  1769 ;;		wreg, fsr2l, fsr2h, status,2, status,0, prodl, prodh, cstack
  1770 ;; Tracked objects:
  1771 ;;		On entry : 0/0
  1772 ;;		On exit  : 0/0
  1773 ;;		Unchanged: 0/0
  1774 ;; Data sizes:     COMRAM   BANK0   BANK1   BANK2
  1775 ;;      Params:         0       0       0       0
  1776 ;;      Locals:         0       0       0       0
  1777 ;;      Temps:          0       0       0       0
  1778 ;;      Totals:         0       0       0       0
  1779 ;;Total ram usage:        0 bytes
  1780 ;; Hardware stack levels used:    1
  1781 ;; Hardware stack levels required when called:    1
  1782 ;; This function calls:
  1783 ;;		_WriteUSART
  1784 ;; This function is called by:
  1785 ;;		_main
  1786 ;; This function uses a non-reentrant model
  1787 ;;
  1788                           
  1789                           	psect	text8
  1790  00383C                     __ptext8:
  1791                           	opt stack 0
  1792  00383C                     _USART_Send:
  1793                           	opt stack 29
  1794                           
  1795                           ;telecomando.c: 123: set_speed_pk1 = set_speed >> 8;
  1796                           
  1797                           ;incstack = 0
  1798  00383C  503E               	movf	_set_speed+1,w,c	;volatile
  1799  00383E  6E43               	movwf	_set_speed_pk1,c	;volatile
  1800                           
  1801                           ;telecomando.c: 124: set_speed_pk0 = set_speed;
  1802  003840  C03D  F042         	movff	_set_speed,_set_speed_pk0	;volatile
  1803                           
  1804                           ;telecomando.c: 125: USART_Tx[1] = dir;
  1805  003844  0E00               	movlw	0
  1806  003846  B050               	btfsc	_dir/(0+8),_dir& (0+7),c	;volatile
  1807  003848  0E01               	movlw	1
  1808  00384A  6E35               	movwf	_USART_Tx+1,c
  1809                           
  1810                           ;telecomando.c: 126: USART_Tx[2] = set_speed_pk1;
  1811  00384C  C043  F036         	movff	_set_speed_pk1,_USART_Tx+2	;volatile
  1812                           
  1813                           ;telecomando.c: 127: USART_Tx[3] = set_speed_pk0;
  1814  003850  C042  F037         	movff	_set_speed_pk0,_USART_Tx+3	;volatile
  1815                           
  1816                           ;telecomando.c: 128: USART_Tx[4] = set_steering;
  1817  003854  C044  F038         	movff	_set_steering,_USART_Tx+4	;volatile
  1818                           
  1819                           ;telecomando.c: 129: USART_Tx[5] = analogic_brake;
  1820  003858  C040  F039         	movff	_analogic_brake,_USART_Tx+5	;volatile
  1821                           
  1822                           ;telecomando.c: 131: for (i = 0; i < 7; i++) {
  1823  00385C  0E00               	movlw	0
  1824  00385E  6E41               	movwf	_i,c	;volatile
  1825  003860                     l922:
  1826  003860  0E06               	movlw	6
  1827  003862  6441               	cpfsgt	_i,c	;volatile
  1828  003864  D001               	goto	l926
  1829  003866  0012               	return	
  1830  003868                     l926:
  1831                           
  1832                           ;telecomando.c: 132: WriteUSART(USART_Tx[i]);
  1833  003868  5041               	movf	_i,w,c	;volatile
  1834  00386A  0D01               	mullw	1
  1835  00386C  0E34               	movlw	low _USART_Tx
  1836  00386E  24F3               	addwf	prodl,w,c
  1837  003870  6ED9               	movwf	fsr2l,c
  1838  003872  0E00               	movlw	high _USART_Tx
  1839  003874  20F4               	addwfc	prodh,w,c
  1840  003876  6EDA               	movwf	fsr2h,c
  1841  003878  50DF               	movf	indf2,w,c
  1842  00387A  ECB2  F01B         	call	_WriteUSART
  1843  00387E                     l116:
  1844  00387E  A2AC               	btfss	4012,1,c	;volatile
  1845  003880  D7FE               	goto	l116
  1846  003882  2A41               	incf	_i,f,c	;volatile
  1847  003884  D7ED               	goto	l922
  1848  003886                     __end_of_USART_Send:
  1849                           	opt stack 0
  1850                           tblptru	equ	0xFF8
  1851                           tblptrh	equ	0xFF7
  1852                           tblptrl	equ	0xFF6
  1853                           tablat	equ	0xFF5
  1854                           prodh	equ	0xFF4
  1855                           prodl	equ	0xFF3
  1856                           postinc0	equ	0xFEE
  1857                           wreg	equ	0xFE8
  1858                           indf2	equ	0xFDF
  1859                           fsr2h	equ	0xFDA
  1860                           fsr2l	equ	0xFD9
  1861                           status	equ	0xFD8
  1862                           
  1863 ;; *************** function _WriteUSART *****************
  1864 ;; Defined at:
  1865 ;;		line 13 in file "C:\Program Files (x86)\Microchip\xc8\v1.35\sources\pic18\plib\USART\uwrite.c"
  1866 ;; Parameters:    Size  Location     Type
  1867 ;;  data            1    wreg     unsigned char 
  1868 ;; Auto vars:     Size  Location     Type
  1869 ;;  data            1    0[COMRAM] unsigned char 
  1870 ;; Return value:  Size  Location     Type
  1871 ;;		None               void
  1872 ;; Registers used:
  1873 ;;		wreg
  1874 ;; Tracked objects:
  1875 ;;		On entry : 0/0
  1876 ;;		On exit  : 0/0
  1877 ;;		Unchanged: 0/0
  1878 ;; Data sizes:     COMRAM   BANK0   BANK1   BANK2
  1879 ;;      Params:         0       0       0       0
  1880 ;;      Locals:         1       0       0       0
  1881 ;;      Temps:          0       0       0       0
  1882 ;;      Totals:         1       0       0       0
  1883 ;;Total ram usage:        1 bytes
  1884 ;; Hardware stack levels used:    1
  1885 ;; This function calls:
  1886 ;;		Nothing
  1887 ;; This function is called by:
  1888 ;;		_USART_Send
  1889 ;; This function uses a non-reentrant model
  1890 ;;
  1891                           
  1892                           	psect	text9
  1893  003764                     __ptext9:
  1894                           	opt stack 0
  1895  003764                     _WriteUSART:
  1896                           	opt stack 29
  1897                           
  1898                           ;incstack = 0
  1899                           ;WriteUSART@data stored from wreg
  1900  003764  6E01               	movwf	WriteUSART@data,c
  1901  003766  ACAC               	btfss	4012,6,c	;volatile
  1902  003768  D003               	goto	l800
  1903  00376A  90AC               	bcf	4012,0,c	;volatile
  1904  00376C  B23F               	btfsc	_USART_Status,1,c
  1905  00376E  80AC               	bsf	4012,0,c	;volatile
  1906  003770                     l800:
  1907  003770  C001  FFAD         	movff	WriteUSART@data,4013	;volatile
  1908  003774  0012               	return		;funcret
  1909  003776                     __end_of_WriteUSART:
  1910                           	opt stack 0
  1911                           tblptru	equ	0xFF8
  1912                           tblptrh	equ	0xFF7
  1913                           tblptrl	equ	0xFF6
  1914                           tablat	equ	0xFF5
  1915                           prodh	equ	0xFF4
  1916                           prodl	equ	0xFF3
  1917                           postinc0	equ	0xFEE
  1918                           wreg	equ	0xFE8
  1919                           indf2	equ	0xFDF
  1920                           fsr2h	equ	0xFDA
  1921                           fsr2l	equ	0xFD9
  1922                           status	equ	0xFD8
  1923                           
  1924 ;; *************** function _Joystick_Polling *****************
  1925 ;; Defined at:
  1926 ;;		line 113 in file "telecomando.c"
  1927 ;; Parameters:    Size  Location     Type
  1928 ;;		None
  1929 ;; Auto vars:     Size  Location     Type
  1930 ;;		None
  1931 ;; Return value:  Size  Location     Type
  1932 ;;		None               void
  1933 ;; Registers used:
  1934 ;;		wreg, fsr2l, fsr2h, status,2, status,0, prodl, prodh
  1935 ;; Tracked objects:
  1936 ;;		On entry : 0/0
  1937 ;;		On exit  : 0/0
  1938 ;;		Unchanged: 0/0
  1939 ;; Data sizes:     COMRAM   BANK0   BANK1   BANK2
  1940 ;;      Params:         0       0       0       0
  1941 ;;      Locals:         0       0       0       0
  1942 ;;      Temps:          1       0       0       0
  1943 ;;      Totals:         1       0       0       0
  1944 ;;Total ram usage:        1 bytes
  1945 ;; Hardware stack levels used:    1
  1946 ;; This function calls:
  1947 ;;		Nothing
  1948 ;; This function is called by:
  1949 ;;		_main
  1950 ;; This function uses a non-reentrant model
  1951 ;;
  1952                           
  1953                           	psect	text10
  1954  0037F4                     __ptext10:
  1955                           	opt stack 0
  1956  0037F4                     _Joystick_Polling:
  1957                           	opt stack 30
  1958                           
  1959                           ;telecomando.c: 114: for (i = 0; i < 2; i++) {
  1960                           
  1961                           ;incstack = 0
  1962  0037F4  0E00               	movlw	0
  1963  0037F6  6E41               	movwf	_i,c	;volatile
  1964  0037F8                     l898:
  1965  0037F8  0E01               	movlw	1
  1966  0037FA  6441               	cpfsgt	_i,c	;volatile
  1967  0037FC  D001               	goto	l106
  1968  0037FE  0012               	return	
  1969  003800                     l106:
  1970                           
  1971                           ;telecomando.c: 115: ADCON0bits.GO = 1;
  1972  003800  82C2               	bsf	4034,1,c	;volatile
  1973  003802                     l108:
  1974  003802  B2C2               	btfsc	4034,1,c	;volatile
  1975  003804  D7FE               	goto	l108
  1976                           
  1977                           ;telecomando.c: 117: JoystickValues[i] = ADRESH - 128;
  1978  003806  5041               	movf	_i,w,c	;volatile
  1979  003808  0D01               	mullw	1
  1980  00380A  0E4E               	movlw	low _JoystickValues
  1981  00380C  24F3               	addwf	prodl,w,c
  1982  00380E  6ED9               	movwf	fsr2l,c
  1983  003810  0E00               	movlw	high _JoystickValues
  1984  003812  20F4               	addwfc	prodh,w,c
  1985  003814  6EDA               	movwf	fsr2h,c
  1986  003816  50C4               	movf	4036,w,c	;volatile
  1987  003818  0F80               	addlw	128
  1988  00381A  6EDF               	movwf	indf2,c
  1989                           
  1990                           ;telecomando.c: 118: ADCON0bits.CHS0 = ~ADCON0bits.CHS0;
  1991  00381C  A4C2               	btfss	4034,2,c	;volatile
  1992  00381E  D002               	goto	u160
  1993  003820  0E01               	movlw	1
  1994  003822  D001               	goto	u166
  1995  003824                     u160:
  1996  003824  0E00               	movlw	0
  1997  003826                     u166:
  1998  003826  0AFF               	xorlw	255
  1999  003828  6E01               	movwf	??_Joystick_Polling& (0+255),c
  2000  00382A  4601               	rlncf	??_Joystick_Polling,f,c
  2001  00382C  4601               	rlncf	??_Joystick_Polling,f,c
  2002  00382E  50C2               	movf	4034,w,c	;volatile
  2003  003830  1801               	xorwf	??_Joystick_Polling,w,c
  2004  003832  0BFB               	andlw	-5
  2005  003834  1801               	xorwf	??_Joystick_Polling,w,c
  2006  003836  6EC2               	movwf	4034,c	;volatile
  2007  003838  2A41               	incf	_i,f,c	;volatile
  2008  00383A  D7DE               	goto	l898
  2009  00383C                     __end_of_Joystick_Polling:
  2010                           	opt stack 0
  2011  0000                     tblptru	equ	0xFF8
  2012                           tblptrh	equ	0xFF7
  2013                           tblptrl	equ	0xFF6
  2014                           tablat	equ	0xFF5
  2015                           prodh	equ	0xFF4
  2016                           prodl	equ	0xFF3
  2017                           postinc0	equ	0xFEE
  2018                           wreg	equ	0xFE8
  2019                           indf2	equ	0xFDF
  2020                           fsr2h	equ	0xFDA
  2021                           fsr2l	equ	0xFD9
  2022                           status	equ	0xFD8
  2023                           tblptru	equ	0xFF8
  2024                           tblptrh	equ	0xFF7
  2025                           tblptrl	equ	0xFF6
  2026                           tablat	equ	0xFF5
  2027                           prodh	equ	0xFF4
  2028                           prodl	equ	0xFF3
  2029                           postinc0	equ	0xFEE
  2030                           wreg	equ	0xFE8
  2031                           indf2	equ	0xFDF
  2032                           fsr2h	equ	0xFDA
  2033                           fsr2l	equ	0xFD9
  2034                           status	equ	0xFD8
  2035                           
  2036                           	psect	rparam
  2037  0000                     tblptru	equ	0xFF8
  2038                           tblptrh	equ	0xFF7
  2039                           tblptrl	equ	0xFF6
  2040                           tablat	equ	0xFF5
  2041                           prodh	equ	0xFF4
  2042                           prodl	equ	0xFF3
  2043                           postinc0	equ	0xFEE
  2044                           wreg	equ	0xFE8
  2045                           indf2	equ	0xFDF
  2046                           fsr2h	equ	0xFDA
  2047                           fsr2l	equ	0xFD9
  2048                           status	equ	0xFD8


Data Sizes:
    Strings     0
    Constant    0
    Data        1
    BSS         28
    Persistent  0
    Stack       0

Auto Spaces:
    Space          Size  Autos    Used
    COMRAM           95     51      81
    BANK0           160      0       0
    BANK1           256      0       0
    BANK2           256      0       0

Pointer List with Targets:

    None.

Critical Paths under _main in COMRAM

    _main->___fltol
    _board_initialization->_delay_ms
    _delay_ms->___wmul
    ___fltol->___flmul
    ___flmul->___xxtofl
    _USART_Send->_WriteUSART

Critical Paths under _main in BANK0

    None.

Critical Paths under _main in BANK1

    None.

Critical Paths under _main in BANK2

    None.

Call Graph Tables:

 ---------------------------------------------------------------------------------
 (Depth) Function   	        Calls       Base Space   Used Autos Params    Refs
 ---------------------------------------------------------------------------------
 (0) _main                                                 2     2      0    3932
                                             49 COMRAM     2     2      0
                   _Joystick_Polling
                         _USART_Send
                            ___flmul
                            ___fltol
                           ___xxtofl
               _board_initialization
                           _delay_ms
 ---------------------------------------------------------------------------------
 (1) _board_initialization                                 0     0      0     785
                          _OpenUSART
                           _delay_ms
 ---------------------------------------------------------------------------------
 (1) _delay_ms                                             2     0      2     501
                                              6 COMRAM     2     0      2
                             ___wmul
 ---------------------------------------------------------------------------------
 (2) ___wmul                                               6     2      4     287
                                              0 COMRAM     6     2      4
 ---------------------------------------------------------------------------------
 (2) _OpenUSART                                            3     1      2     284
                                              0 COMRAM     3     1      2
 ---------------------------------------------------------------------------------
 (1) ___xxtofl                                            14    10      4     450
                                              0 COMRAM    14    10      4
 ---------------------------------------------------------------------------------
 (1) ___fltol                                             10     6      4     357
                                             39 COMRAM    10     6      4
                            ___flmul (ARG)
                           ___xxtofl (ARG)
 ---------------------------------------------------------------------------------
 (1) ___flmul                                             25    17      8    1824
                                             14 COMRAM    25    17      8
                           ___xxtofl (ARG)
 ---------------------------------------------------------------------------------
 (1) _USART_Send                                           0     0      0      15
                         _WriteUSART
 ---------------------------------------------------------------------------------
 (2) _WriteUSART                                           1     1      0      15
                                              0 COMRAM     1     1      0
 ---------------------------------------------------------------------------------
 (1) _Joystick_Polling                                     1     1      0       0
                                              0 COMRAM     1     1      0
 ---------------------------------------------------------------------------------
 Estimated maximum stack depth 2
 ---------------------------------------------------------------------------------

 Call Graph Graphs:

 _main (ROOT)
   _Joystick_Polling
   _USART_Send
     _WriteUSART
   ___flmul
     ___xxtofl (ARG)
   ___fltol
     ___flmul (ARG)
       ___xxtofl (ARG)
     ___xxtofl (ARG)
   ___xxtofl
   _board_initialization
     _OpenUSART
     _delay_ms
       ___wmul
   _delay_ms
     ___wmul

 Address spaces:
Name               Size   Autos  Total    Cost      Usage
BIGRAM             2FF      0       0      10        0.0%
EEDATA             100      0       0       0        0.0%
BITBANK2           100      0       0       7        0.0%
BANK2              100      0       0       8        0.0%
BITBANK1           100      0       0       5        0.0%
BANK1              100      0       0       6        0.0%
BITBANK0            A0      0       0       3        0.0%
BANK0               A0      0       0       4        0.0%
BITCOMRAM           5F      0       1       0        1.1%
COMRAM              5F     33      51       1       85.3%
BITSFR_3             0      0       0      40        0.0%
SFR_3                0      0       0      40        0.0%
BITSFR_2             0      0       0      40        0.0%
SFR_2                0      0       0      40        0.0%
BITSFR_1             0      0       0      40        0.0%
SFR_1                0      0       0      40        0.0%
BITSFR               0      0       0      40        0.0%
SFR                  0      0       0      40        0.0%
STACK                0      0       0       2        0.0%
NULL                 0      0       0       0        0.0%
ABS                  0      0      51       9        0.0%
DATA                 0      0      51      11        0.0%
CODE                 0      0       0       0        0.0%


Microchip Technology PIC18 Macro Assembler V1.35 build -356382666 
Symbol Table                                                                                   Sat Feb 27 09:23:03 2016

                            _i 0041                             l57 37EA                             l95 3A60  
          ___wmul@multiplicand 0003                    __CFG_BORV$3 000000                   __CFG_CP0$OFF 000000  
                 __CFG_CP1$OFF 000000                    __CFG_OSC$HS 000000                    __CFG_LVP$ON 000000  
                          l106 3800                            l108 3802                            l116 387E  
                          l150 38BC                            l151 38BE                            l152 38C8  
                          l153 38CA                            l146 38A8                            l701 3F46  
                          l800 3770                            l721 3C1C                            l714 3B9E  
                          l709 3FCC                            l728 3C58                            l729 3C6C  
                          l922 3860                            l692 3D30                            l926 3868  
                          l898 37F8                   __CFG_CPB$OFF 000000                            u160 3824  
                          u166 3826                   __CFG_CPD$OFF 000000                            u800 3EB2  
                          u805 3EA8                            u920 3986                            u925 397C  
                          u880 3F98                            _dir 0280                            prod 000FF3  
                          wreg 000FE8                   ___flmul@aexp 0020                   ___flmul@bexp 0021  
                 ___flmul@sign 001B                   ___flmul@temp 0026                   ___flmul@prod 0022  
                 ___fltol@exp1 0031                   __CFG_WDT$OFF 000000                           l1220 389C  
                         l1206 37DE                           l1320 3CF0                           l1402 3F42  
                         l1412 3F8A                           l1340 3D3C                           l1316 3CDC  
                         l1228 38AA                           l1334 3D1C                           l1318 3CE0  
                         l1502 3C42                           l1416 3FA8                           l1344 3D4E  
                         l1336 3D20                           l1440 3968                           l1504 3C4E  
                         l1418 3FB6                           l1428 3FEA                           l1460 39D4  
                         l1516 3C9E                           l1470 39FE                           l1392 3F0E  
                         l1456 39C4                           l1560 3B3C                           l1552 3A72  
                         l1386 3EF0                           l1474 3A14                           l1466 39EC  
                         l1490 3BCC                           l1538 3A52                           l1468 39F8  
                         l1492 3BD2                           l1484 3BAE                           l1548 3A6C  
                         l1494 3BDE                           l1496 3C04                           u1127 37E0  
                         _LATA 000F89                           _LATB 000F8A                           _LATC 000F8B  
                         _LATD 000F8C                           _LATE 000F8D                           _PIE1 000F9D  
                         _main 3A26                           indf2 000FDF                           fsr2l 000FD9  
                         prodh 000FF4                           prodl 000FF3                           start 0000  
                __CFG_IESO$OFF 000000                  __CFG_MCLRE$ON 000000                   ___param_bank 000010  
                ___fltol@sign1 0030                          ?_main 0001                __end_of___flmul 4000  
              __end_of___fltol 3A26                          _RCSTA 000FAB                          _SPBRG 000FAF  
                        _TRISA 000F92                          _TRISB 000F93                          _TRISC 000F94  
                        _TRISD 000F95                          _TRISE 000F96                          _TXREG 000FAD  
                        _TXSTA 000FAC                  __CFG_PWRT$OFF 000000                  __CFG_WRT0$OFF 000000  
                __CFG_WRT1$OFF 000000                 __CFG_EBTR0$OFF 000000                 __CFG_FCMEN$OFF 000000  
               __CFG_EBTR1$OFF 000000                  __CFG_WRTB$OFF 000000                  __CFG_WRTC$OFF 000000  
                __CFG_WRTD$OFF 000000                 __CFG_EBTRB$OFF 000000                 __pbitbssCOMRAM 0280  
                        tablat 000FF5                          status 000FD8                 __CFG_PBADEN$ON 000000  
                  ?_USART_Send 0001                 WriteUSART@data 0001                __initialization 379C  
                 __end_of_main 3B60  __size_of_board_initialization 0064              ?_Joystick_Polling 0001  
           ??_Joystick_Polling 0001                         ??_main 0032                  __activetblptr 000000  
               _JoystickValues 004E                         _ADCON1 000FC1                         _ADRESH 000FC4  
              __CFG_BBSIZ$1024 000000                         _SPBRGH 000FB0               __end_of___xxtofl 3CB0  
              _switch_position 0045               __end_of_delay_ms 37F4                 __CFG_XINST$OFF 000000  
           __size_of_OpenUSART 0060                         ___wmul 3776                 __CFG_STVREN$ON 000000  
                    ??___flmul 0017                      ??___fltol 002C                         clear_0 37A4  
              __CFG_BOREN$BOHW 000000              _JoystickConstants 0046                   __pdataCOMRAM 0051  
                       tblptrh 000FF7                 _analogic_brake 0040                         tblptrl 000FF6  
                       tblptru 000FF8            __size_of_USART_Send 004A                   ___xxtofl@arg 000B  
                 ___xxtofl@exp 000A                   ___xxtofl@val 0001                     __accesstop 0060  
      __end_of__initialization 37BC                  ___rparam_used 000001                     ___fltol@f1 0028  
                   _WriteUSART 3764                 __pcstackCOMRAM 0001              __end_of_OpenUSART 38E6  
                      ?___wmul 0001                      ?___xxtofl 0001                      ?_delay_ms 0007  
                 ??_USART_Send 0002                        __Hparam 0000                        __Lparam 0000  
             delay_ms@value_ms 0007                    ?_WriteUSART 0001                        ___flmul 3CB0  
                      ___fltol 394A                __size_of___wmul 0026                        __pcinit 379C  
                      __ramtop 0300                        __ptext0 3A26                        __ptext1 38E6  
                      __ptext2 37C2                        __ptext3 3776                        __ptext4 3886  
                      __ptext5 3B60                        __ptext6 394A                        __ptext7 3CB0  
                      __ptext8 383C                        __ptext9 3764                     ??___xxtofl 0005  
                   ??_delay_ms 0009   __end_of_board_initialization 394A      __size_of_Joystick_Polling 0048  
           __end_of_USART_Send 3886           end_of_initialization 37BC                      _RCSTAbits 000FAB  
                      postinc0 000FEE                      _PORTAbits 000F80                  ___xxtofl@sign 0009  
                    _TRISCbits 000F94            __size_of_WriteUSART 0012        _clock_counter_reference 003B  
                  ___flmul@grs 001C                      _TXSTAbits 000FAC                 __end_of___wmul 379C  
                __pidataCOMRAM 3763            start_initialization 379C                      _OpenUSART 3886  
         _board_initialization 38E6                       ??___wmul 0005               __CFG_LPT1OSC$OFF 000000  
                    ___flmul@a 0013                      ___flmul@b 000F                    __pbssCOMRAM 0034  
             _Joystick_Polling 37F4              __size_of___xxtofl 0150              __size_of_delay_ms 0032  
                   ?_OpenUSART 0001                   ??_WriteUSART 0001          ?_board_initialization 0001  
                     ?___flmul 000F                       ?___fltol 0028             __end_of_WriteUSART 3776  
               ___wmul@product 0005   _delay_quartz_frequency_value 0051                       _PIE1bits 000F9D  
                     _PIR1bits 000F9E                      _set_speed 003D               __CFG_WDTPS$32768 000000  
                     _USART_Tx 0034                     _ADCON0bits 000FC2                     _ADCON2bits 000FC0  
            ___wmul@multiplier 0001                  _set_speed_pk0 0042                  _set_speed_pk1 0043  
                  ??_OpenUSART 0003                OpenUSART@config 0003                       __Hrparam 0000  
       ??_board_initialization 0009                       __Lrparam 0000               __size_of___flmul 0350  
             __size_of___fltol 00DC                       ___xxtofl 3B60                       _delay_ms 37C2  
                     __ptext10 37F4                  __size_of_main 013A       __end_of_Joystick_Polling 383C  
                 _set_steering 0044                 OpenUSART@spbrg 0001                   _USART_Status 003F  
                   _USART_Send 383C  
